
 Start         Length     Name                   Class
 0001:00401000 00021928H .text                   CODE
 0002:00423000 000005B8H .itext                  ICODE
 0003:00424000 000003A0H .data                   DATA
 0004:00425000 000000A4H .bss                    BSS
 0005:00000000 00000000H .tls                    TLS
 0006:00400000 00000000H .pdata                  PDATA


Detailed map of segments

 0001:00000000 00000278 C=CODE     S=.text    G=(none)   M=System   ACBP=A9
 0001:00000278 000007D0 C=CODE     S=.text    G=(none)   M=SysInit  ACBP=A9
 0001:00000A48 00000160 C=CODE     S=.text    G=(none)   M=Winapi.Windows ACBP=A9
 0001:00000BA8 00000008 C=CODE     S=.text    G=(none)   M=System.Internal.ExcUtils ACBP=A9
 0001:00000BB0 00000108 C=CODE     S=.text    G=(none)   M=System.SysUtils ACBP=A9
 0001:00000CB8 00000008 C=CODE     S=.text    G=(none)   M=System.VarUtils ACBP=A9
 0001:00000CC0 00000020 C=CODE     S=.text    G=(none)   M=System.Variants ACBP=A9
 0001:00000CE0 00000014 C=CODE     S=.text    G=(none)   M=Winapi.ActiveX ACBP=A9
 0001:00000CF4 00000010 C=CODE     S=.text    G=(none)   M=System.StrUtils ACBP=A9
 0001:00000D04 00000008 C=CODE     S=.text    G=(none)   M=System.Math ACBP=A9
 0001:00000D0C 00000008 C=CODE     S=.text    G=(none)   M=System.TimeSpan ACBP=A9
 0001:00000D14 00000008 C=CODE     S=.text    G=(none)   M=System.SyncObjs ACBP=A9
 0001:00000D1C 00000010 C=CODE     S=.text    G=(none)   M=System.Generics.Defaults ACBP=A9
 0001:00000D2C 00000008 C=CODE     S=.text    G=(none)   M=System.Rtti ACBP=A9
 0001:00000D34 00000040 C=CODE     S=.text    G=(none)   M=System.TypInfo ACBP=A9
 0001:00000D74 00000278 C=CODE     S=.text    G=(none)   M=System.Classes ACBP=A9
 0001:00000FEC 00000018 C=CODE     S=.text    G=(none)   M=System.DateUtils ACBP=A9
 0001:00001004 00000010 C=CODE     S=.text    G=(none)   M=System.IOUtils ACBP=A9
 0001:00001014 00000008 C=CODE     S=.text    G=(none)   M=System.Win.Registry ACBP=A9
 0001:0000101C 00000048 C=CODE     S=.text    G=(none)   M=Vcl.Graphics ACBP=A9
 0001:00001064 00000018 C=CODE     S=.text    G=(none)   M=System.Contnrs ACBP=A9
 0001:0000107C 00000008 C=CODE     S=.text    G=(none)   M=System.Actions ACBP=A9
 0001:00001084 00000008 C=CODE     S=.text    G=(none)   M=Vcl.ActnList ACBP=A9
 0001:0000108C 00000008 C=CODE     S=.text    G=(none)   M=System.HelpIntfs ACBP=A9
 0001:00001094 00000008 C=CODE     S=.text    G=(none)   M=Winapi.UxTheme ACBP=A9
 0001:0000109C 00000008 C=CODE     S=.text    G=(none)   M=Vcl.GraphUtil ACBP=A9
 0001:000010A4 000000D8 C=CODE     S=.text    G=(none)   M=Vcl.StdCtrls ACBP=A9
 0001:0000117C 00000008 C=CODE     S=.text    G=(none)   M=Vcl.Printers ACBP=A9
 0001:00001184 00000008 C=CODE     S=.text    G=(none)   M=Vcl.Clipbrd ACBP=A9
 0001:0000118C 00000128 C=CODE     S=.text    G=(none)   M=Vcl.ComCtrls ACBP=A9
 0001:000012B4 00000010 C=CODE     S=.text    G=(none)   M=Vcl.Dialogs ACBP=A9
 0001:000012C4 00000080 C=CODE     S=.text    G=(none)   M=Vcl.ExtCtrls ACBP=A9
 0001:00001344 00000008 C=CODE     S=.text    G=(none)   M=Vcl.Themes ACBP=A9
 0001:0000134C 00000008 C=CODE     S=.text    G=(none)   M=Winapi.FlatSB ACBP=A9
 0001:00001354 000001A8 C=CODE     S=.text    G=(none)   M=Vcl.Forms ACBP=A9
 0001:000014FC 00000030 C=CODE     S=.text    G=(none)   M=Vcl.ImgList ACBP=A9
 0001:0000152C 00000008 C=CODE     S=.text    G=(none)   M=Vcl.Menus ACBP=A9
 0001:00001534 00000028 C=CODE     S=.text    G=(none)   M=System.Win.ComObj ACBP=A9
 0001:0000155C 000002B8 C=CODE     S=.text    G=(none)   M=Vcl.Controls ACBP=A9
 0001:00001814 00000010 C=CODE     S=.text    G=(none)   M=DesignIntf ACBP=A9
 0001:00001824 00000008 C=CODE     S=.text    G=(none)   M=IDEMessages ACBP=A9
 0001:0000182C 00000008 C=CODE     S=.text    G=(none)   M=Vcl.CaptionedDockTree ACBP=A9
 0001:00001834 00000008 C=CODE     S=.text    G=(none)   M=Vcl.DockTabSet ACBP=A9
 0001:0000183C 00000008 C=CODE     S=.text    G=(none)   M=PercentageDockTree ACBP=A9
 0001:00001844 00000010 C=CODE     S=.text    G=(none)   M=Vcl.Buttons ACBP=A9
 0001:00001854 00000008 C=CODE     S=.text    G=(none)   M=Vcl.ExtDlgs ACBP=A9
 0001:0000185C 00000008 C=CODE     S=.text    G=(none)   M=Winapi.Mapi ACBP=A9
 0001:00001864 00000008 C=CODE     S=.text    G=(none)   M=Vcl.ExtActns ACBP=A9
 0001:0000186C 00000008 C=CODE     S=.text    G=(none)   M=Vcl.ActnMenus ACBP=A9
 0001:00001874 00000008 C=CODE     S=.text    G=(none)   M=Vcl.ActnMan ACBP=A9
 0001:0000187C 00000008 C=CODE     S=.text    G=(none)   M=Vcl.PlatformDefaultStyleActnCtrls ACBP=A9
 0001:00001884 00000008 C=CODE     S=.text    G=(none)   M=BaseDock ACBP=A9
 0001:0000188C 00000008 C=CODE     S=.text    G=(none)   M=DeskUtil ACBP=A9
 0001:00001894 00000008 C=CODE     S=.text    G=(none)   M=DeskForm ACBP=A9
 0001:0000189C 00000008 C=CODE     S=.text    G=(none)   M=DockForm ACBP=A9
 0001:000018A4 00000010 C=CODE     S=.text    G=(none)   M=Xml.Win.msxmldom ACBP=A9
 0001:000018B4 00000008 C=CODE     S=.text    G=(none)   M=Xml.Xmldom ACBP=A9
 0001:000018BC 00000028 C=CODE     S=.text    G=(none)   M=ToolsAPI ACBP=A9
 0001:000018E4 00000008 C=CODE     S=.text    G=(none)   M=Proxies  ACBP=A9
 0001:000018EC 00000178 C=CODE     S=.text    G=(none)   M=DesignEditors ACBP=A9
 0001:00001A64 00000030 C=CODE     S=.text    G=(none)   M=VAClasses ACBP=A9
 0001:00001A94 00000068 C=CODE     S=.text    G=(none)   M=VAUtils  ACBP=A9
 0001:00001AFC 00000114 C=CODE     S=.text    G=(none)   M=VA508AccessibilityConst ACBP=A9
 0001:00001C10 00000018 C=CODE     S=.text    G=(none)   M=HRParser ACBP=A9
 0001:00001C28 00000008 C=CODE     S=.text    G=(none)   M=HRParserPas ACBP=A9
 0001:00001C30 00000008 C=CODE     S=.text    G=(none)   M=Vcl.OleServer ACBP=A9
 0001:00001C38 000003A4 C=CODE     S=.text    G=(none)   M=oleacc2  ACBP=A9
 0001:00001FDC 00000008 C=CODE     S=.text    G=(none)   M=MSAAConstants ACBP=A9
 0001:00001FE4 000022A4 C=CODE     S=.text    G=(none)   M=VA508MSAASupport ACBP=A9
 0001:00004288 00000D18 C=CODE     S=.text    G=(none)   M=VA508ScreenReaderDLLLinker ACBP=A9
 0001:00004FA0 000025DC C=CODE     S=.text    G=(none)   M=VA508AccessibilityRouter ACBP=A9
 0001:0000757C 0000216C C=CODE     S=.text    G=(none)   M=VA508ImageListLabeler ACBP=A9
 0001:000096E8 000026D0 C=CODE     S=.text    G=(none)   M=VA508Classes ACBP=A9
 0001:0000BDB8 00000018 C=CODE     S=.text    G=(none)   M=Vcl.CheckLst ACBP=A9
 0001:0000BDD0 00000020 C=CODE     S=.text    G=(none)   M=Vcl.Grids ACBP=A9
 0001:0000BDF0 00000008 C=CODE     S=.text    G=(none)   M=Data.SqlTimSt ACBP=A9
 0001:0000BDF8 00000008 C=CODE     S=.text    G=(none)   M=Data.FmtBcd ACBP=A9
 0001:0000BE00 00000008 C=CODE     S=.text    G=(none)   M=Data.DB  ACBP=A9
 0001:0000BE08 00000008 C=CODE     S=.text    G=(none)   M=Vcl.DBLogDlg ACBP=A9
 0001:0000BE10 00000008 C=CODE     S=.text    G=(none)   M=Vcl.DBPWDlg ACBP=A9
 0001:0000BE18 00000028 C=CODE     S=.text    G=(none)   M=Vcl.DBCtrls ACBP=A9
 0001:0000BE40 00000010 C=CODE     S=.text    G=(none)   M=Vcl.DBGrids ACBP=A9
 0001:0000BE50 00001CE0 C=CODE     S=.text    G=(none)   M=VA508DelphiCompatibility ACBP=A9
 0001:0000DB30 0000AB10 C=CODE     S=.text    G=(none)   M=VA508AccessibilityManager ACBP=A9
 0001:00018640 00000A1C C=CODE     S=.text    G=(none)   M=VA508AccessibilityCompileInfo ACBP=A9
 0001:0001905C 00000008 C=CODE     S=.text    G=(none)   M=Vcl.AxCtrls ACBP=A9
 0001:00019064 00000008 C=CODE     S=.text    G=(none)   M=Vcl.AppEvnts ACBP=A9
 0001:0001906C 00000008 C=CODE     S=.text    G=(none)   M=TreeIntf ACBP=A9
 0001:00019074 00000008 C=CODE     S=.text    G=(none)   M=TopLevels ACBP=A9
 0001:0001907C 00000008 C=CODE     S=.text    G=(none)   M=StFilSys ACBP=A9
 0001:00019084 00000008 C=CODE     S=.text    G=(none)   M=IDEHelp  ACBP=A9
 0001:0001908C 00000008 C=CODE     S=.text    G=(none)   M=ComponentDesigner ACBP=A9
 0001:00019094 00000008 C=CODE     S=.text    G=(none)   M=VCLEditors ACBP=A9
 0001:0001909C 00000048 C=CODE     S=.text    G=(none)   M=DesignWindows ACBP=A9
 0001:000190E4 00000010 C=CODE     S=.text    G=(none)   M=ToolWnds ACBP=A9
 0001:000190F4 00000058 C=CODE     S=.text    G=(none)   M=ColnEdit ACBP=A9
 0001:0001914C 00002498 C=CODE     S=.text    G=(none)   M=VA508AccessibilityPE ACBP=A9
 0001:0001B5E4 00003EB0 C=CODE     S=.text    G=(none)   M=VA508AccessibilityCompiler ACBP=A9
 0001:0001F494 00001920 C=CODE     S=.text    G=(none)   M=VA508ImageListLabelerPE ACBP=A9
 0001:00020DB4 00000B74 C=CODE     S=.text    G=(none)   M=.VA508AccessXE3 ACBP=A9
 0002:00000000 00000008 C=ICODE    S=.itext   G=(none)   M=System   ACBP=A9
 0002:00000008 00000008 C=ICODE    S=.itext   G=(none)   M=SysInit  ACBP=A9
 0002:00000010 00000018 C=ICODE    S=.itext   G=(none)   M=Winapi.Windows ACBP=A9
 0002:00000028 00000008 C=ICODE    S=.itext   G=(none)   M=System.Internal.ExcUtils ACBP=A9
 0002:00000030 00000028 C=ICODE    S=.itext   G=(none)   M=System.SysUtils ACBP=A9
 0002:00000058 00000008 C=ICODE    S=.itext   G=(none)   M=System.VarUtils ACBP=A9
 0002:00000060 00000008 C=ICODE    S=.itext   G=(none)   M=System.Variants ACBP=A9
 0002:00000068 00000008 C=ICODE    S=.itext   G=(none)   M=System.Math ACBP=A9
 0002:00000070 00000008 C=ICODE    S=.itext   G=(none)   M=System.TimeSpan ACBP=A9
 0002:00000078 00000008 C=ICODE    S=.itext   G=(none)   M=System.SyncObjs ACBP=A9
 0002:00000080 00000010 C=ICODE    S=.itext   G=(none)   M=System.Generics.Defaults ACBP=A9
 0002:00000090 00000008 C=ICODE    S=.itext   G=(none)   M=System.Rtti ACBP=A9
 0002:00000098 00000008 C=ICODE    S=.itext   G=(none)   M=System.TypInfo ACBP=A9
 0002:000000A0 00000030 C=ICODE    S=.itext   G=(none)   M=System.Classes ACBP=A9
 0002:000000D0 00000008 C=ICODE    S=.itext   G=(none)   M=System.DateUtils ACBP=A9
 0002:000000D8 00000010 C=ICODE    S=.itext   G=(none)   M=System.IOUtils ACBP=A9
 0002:000000E8 00000008 C=ICODE    S=.itext   G=(none)   M=System.Win.Registry ACBP=A9
 0002:000000F0 00000008 C=ICODE    S=.itext   G=(none)   M=Vcl.Graphics ACBP=A9
 0002:000000F8 00000008 C=ICODE    S=.itext   G=(none)   M=System.Actions ACBP=A9
 0002:00000100 00000008 C=ICODE    S=.itext   G=(none)   M=Vcl.ActnList ACBP=A9
 0002:00000108 00000008 C=ICODE    S=.itext   G=(none)   M=System.HelpIntfs ACBP=A9
 0002:00000110 00000008 C=ICODE    S=.itext   G=(none)   M=Winapi.UxTheme ACBP=A9
 0002:00000118 00000008 C=ICODE    S=.itext   G=(none)   M=Vcl.GraphUtil ACBP=A9
 0002:00000120 00000090 C=ICODE    S=.itext   G=(none)   M=Vcl.StdCtrls ACBP=A9
 0002:000001B0 00000008 C=ICODE    S=.itext   G=(none)   M=Vcl.Printers ACBP=A9
 0002:000001B8 00000008 C=ICODE    S=.itext   G=(none)   M=Vcl.Clipbrd ACBP=A9
 0002:000001C0 000000C8 C=ICODE    S=.itext   G=(none)   M=Vcl.ComCtrls ACBP=A9
 0002:00000288 00000008 C=ICODE    S=.itext   G=(none)   M=Vcl.Dialogs ACBP=A9
 0002:00000290 00000028 C=ICODE    S=.itext   G=(none)   M=Vcl.ExtCtrls ACBP=A9
 0002:000002B8 00000008 C=ICODE    S=.itext   G=(none)   M=Vcl.Themes ACBP=A9
 0002:000002C0 00000008 C=ICODE    S=.itext   G=(none)   M=Winapi.FlatSB ACBP=A9
 0002:000002C8 00000020 C=ICODE    S=.itext   G=(none)   M=Vcl.Forms ACBP=A9
 0002:000002E8 00000008 C=ICODE    S=.itext   G=(none)   M=Vcl.Menus ACBP=A9
 0002:000002F0 00000010 C=ICODE    S=.itext   G=(none)   M=System.Win.ComObj ACBP=A9
 0002:00000300 00000008 C=ICODE    S=.itext   G=(none)   M=Vcl.Controls ACBP=A9
 0002:00000308 00000008 C=ICODE    S=.itext   G=(none)   M=IDEMessages ACBP=A9
 0002:00000310 00000008 C=ICODE    S=.itext   G=(none)   M=Vcl.CaptionedDockTree ACBP=A9
 0002:00000318 00000008 C=ICODE    S=.itext   G=(none)   M=Vcl.DockTabSet ACBP=A9
 0002:00000320 00000008 C=ICODE    S=.itext   G=(none)   M=PercentageDockTree ACBP=A9
 0002:00000328 00000010 C=ICODE    S=.itext   G=(none)   M=Vcl.Buttons ACBP=A9
 0002:00000338 00000008 C=ICODE    S=.itext   G=(none)   M=Vcl.ExtDlgs ACBP=A9
 0002:00000340 00000008 C=ICODE    S=.itext   G=(none)   M=Winapi.Mapi ACBP=A9
 0002:00000348 00000008 C=ICODE    S=.itext   G=(none)   M=Vcl.ExtActns ACBP=A9
 0002:00000350 00000008 C=ICODE    S=.itext   G=(none)   M=Vcl.ActnMenus ACBP=A9
 0002:00000358 00000008 C=ICODE    S=.itext   G=(none)   M=Vcl.ActnMan ACBP=A9
 0002:00000360 00000008 C=ICODE    S=.itext   G=(none)   M=Vcl.PlatformDefaultStyleActnCtrls ACBP=A9
 0002:00000368 00000008 C=ICODE    S=.itext   G=(none)   M=BaseDock ACBP=A9
 0002:00000370 00000008 C=ICODE    S=.itext   G=(none)   M=DeskUtil ACBP=A9
 0002:00000378 00000008 C=ICODE    S=.itext   G=(none)   M=DeskForm ACBP=A9
 0002:00000380 00000008 C=ICODE    S=.itext   G=(none)   M=DockForm ACBP=A9
 0002:00000388 00000010 C=ICODE    S=.itext   G=(none)   M=Xml.Win.msxmldom ACBP=A9
 0002:00000398 00000008 C=ICODE    S=.itext   G=(none)   M=Xml.Xmldom ACBP=A9
 0002:000003A0 00000008 C=ICODE    S=.itext   G=(none)   M=ToolsAPI ACBP=A9
 0002:000003A8 00000008 C=ICODE    S=.itext   G=(none)   M=Proxies  ACBP=A9
 0002:000003B0 00000008 C=ICODE    S=.itext   G=(none)   M=DesignEditors ACBP=A9
 0002:000003B8 00000008 C=ICODE    S=.itext   G=(none)   M=VAUtils  ACBP=A9
 0002:000003C0 00000008 C=ICODE    S=.itext   G=(none)   M=VA508AccessibilityConst ACBP=A9
 0002:000003C8 00000008 C=ICODE    S=.itext   G=(none)   M=Vcl.OleServer ACBP=A9
 0002:000003D0 00000008 C=ICODE    S=.itext   G=(none)   M=oleacc2  ACBP=A9
 0002:000003D8 00000008 C=ICODE    S=.itext   G=(none)   M=MSAAConstants ACBP=A9
 0002:000003E0 00000018 C=ICODE    S=.itext   G=(none)   M=VA508MSAASupport ACBP=A9
 0002:000003F8 0000000C C=ICODE    S=.itext   G=(none)   M=VA508ScreenReaderDLLLinker ACBP=A9
 0002:00000404 00000028 C=ICODE    S=.itext   G=(none)   M=VA508AccessibilityRouter ACBP=A9
 0002:0000042C 00000008 C=ICODE    S=.itext   G=(none)   M=VA508ImageListLabeler ACBP=A9
 0002:00000434 00000008 C=ICODE    S=.itext   G=(none)   M=VA508Classes ACBP=A9
 0002:0000043C 00000008 C=ICODE    S=.itext   G=(none)   M=Vcl.CheckLst ACBP=A9
 0002:00000444 00000020 C=ICODE    S=.itext   G=(none)   M=Vcl.Grids ACBP=A9
 0002:00000464 00000008 C=ICODE    S=.itext   G=(none)   M=Data.SqlTimSt ACBP=A9
 0002:0000046C 00000008 C=ICODE    S=.itext   G=(none)   M=Data.FmtBcd ACBP=A9
 0002:00000474 00000008 C=ICODE    S=.itext   G=(none)   M=Data.DB  ACBP=A9
 0002:0000047C 00000008 C=ICODE    S=.itext   G=(none)   M=Vcl.DBLogDlg ACBP=A9
 0002:00000484 00000008 C=ICODE    S=.itext   G=(none)   M=Vcl.DBPWDlg ACBP=A9
 0002:0000048C 00000028 C=ICODE    S=.itext   G=(none)   M=Vcl.DBCtrls ACBP=A9
 0002:000004B4 00000010 C=ICODE    S=.itext   G=(none)   M=Vcl.DBGrids ACBP=A9
 0002:000004C4 00000014 C=ICODE    S=.itext   G=(none)   M=VA508DelphiCompatibility ACBP=A9
 0002:000004D8 00000018 C=ICODE    S=.itext   G=(none)   M=VA508AccessibilityManager ACBP=A9
 0002:000004F0 00000030 C=ICODE    S=.itext   G=(none)   M=VA508AccessibilityCompileInfo ACBP=A9
 0002:00000520 00000008 C=ICODE    S=.itext   G=(none)   M=Vcl.AxCtrls ACBP=A9
 0002:00000528 00000008 C=ICODE    S=.itext   G=(none)   M=Vcl.AppEvnts ACBP=A9
 0002:00000530 00000008 C=ICODE    S=.itext   G=(none)   M=TreeIntf ACBP=A9
 0002:00000538 00000008 C=ICODE    S=.itext   G=(none)   M=TopLevels ACBP=A9
 0002:00000540 00000008 C=ICODE    S=.itext   G=(none)   M=StFilSys ACBP=A9
 0002:00000548 00000008 C=ICODE    S=.itext   G=(none)   M=IDEHelp  ACBP=A9
 0002:00000550 00000008 C=ICODE    S=.itext   G=(none)   M=ComponentDesigner ACBP=A9
 0002:00000558 00000008 C=ICODE    S=.itext   G=(none)   M=VCLEditors ACBP=A9
 0002:00000560 00000008 C=ICODE    S=.itext   G=(none)   M=ToolWnds ACBP=A9
 0002:00000568 00000008 C=ICODE    S=.itext   G=(none)   M=ColnEdit ACBP=A9
 0002:00000570 00000008 C=ICODE    S=.itext   G=(none)   M=VA508AccessibilityPE ACBP=A9
 0002:00000578 00000030 C=ICODE    S=.itext   G=(none)   M=VA508AccessibilityCompiler ACBP=A9
 0002:000005A8 00000008 C=ICODE    S=.itext   G=(none)   M=VA508ImageListLabelerPE ACBP=A9
 0002:000005B0 00000008 C=ICODE    S=.itext   G=(none)   M=.VA508AccessXE3 ACBP=A9
 0003:00000000 00000088 C=DATA     S=.data    G=DGROUP   M=SysInit  ACBP=A9
 0003:00000088 0000000C C=DATA     S=.data    G=DGROUP   M=Winapi.Windows ACBP=A9
 0003:00000094 00000070 C=DATA     S=.data    G=DGROUP   M=oleacc2  ACBP=A9
 0003:00000104 00000180 C=DATA     S=.data    G=DGROUP   M=MSAAConstants ACBP=A9
 0003:00000284 00000018 C=DATA     S=.data    G=DGROUP   M=VA508MSAASupport ACBP=A9
 0003:0000029C 0000002C C=DATA     S=.data    G=DGROUP   M=VA508ScreenReaderDLLLinker ACBP=A9
 0003:000002C8 00000018 C=DATA     S=.data    G=DGROUP   M=VA508AccessibilityRouter ACBP=A9
 0003:000002E0 00000064 C=DATA     S=.data    G=DGROUP   M=VA508AccessibilityManager ACBP=A9
 0003:00000344 00000004 C=DATA     S=.data    G=DGROUP   M=VA508AccessibilityCompileInfo ACBP=A9
 0003:00000348 00000008 C=DATA     S=.data    G=DGROUP   M=VA508AccessibilityCompiler ACBP=A9
 0004:00000000 00000020 C=BSS      S=.bss     G=DGROUP   M=SysInit  ACBP=A9
 0004:00000020 00000008 C=BSS      S=.bss     G=DGROUP   M=Winapi.Windows ACBP=A9
 0004:00000028 00000004 C=BSS      S=.bss     G=DGROUP   M=VA508AccessibilityConst ACBP=A9
 0004:0000002C 00000004 C=BSS      S=.bss     G=DGROUP   M=oleacc2  ACBP=A9
 0004:00000030 00000004 C=BSS      S=.bss     G=DGROUP   M=MSAAConstants ACBP=A9
 0004:00000034 00000018 C=BSS      S=.bss     G=DGROUP   M=VA508MSAASupport ACBP=A9
 0004:0000004C 00000004 C=BSS      S=.bss     G=DGROUP   M=VA508ScreenReaderDLLLinker ACBP=A9
 0004:00000050 00000004 C=BSS      S=.bss     G=DGROUP   M=VA508AccessibilityRouter ACBP=A9
 0004:00000054 00000004 C=BSS      S=.bss     G=DGROUP   M=VA508ImageListLabeler ACBP=A9
 0004:00000058 00000004 C=BSS      S=.bss     G=DGROUP   M=VA508Classes ACBP=A9
 0004:0000005C 00000004 C=BSS      S=.bss     G=DGROUP   M=VA508DelphiCompatibility ACBP=A9
 0004:00000060 0000000C C=BSS      S=.bss     G=DGROUP   M=VA508AccessibilityManager ACBP=A9
 0004:0000006C 00000024 C=BSS      S=.bss     G=DGROUP   M=VA508AccessibilityCompileInfo ACBP=A9
 0004:00000090 00000004 C=BSS      S=.bss     G=DGROUP   M=VA508AccessibilityPE ACBP=A9
 0004:00000094 0000000C C=BSS      S=.bss     G=DGROUP   M=VA508AccessibilityCompiler ACBP=A9
 0004:000000A0 00000004 C=BSS      S=.bss     G=DGROUP   M=VA508ImageListLabelerPE ACBP=A9


  Address             Publics by Name

 0002:000005B0       .VA508AccessXE3..VA508AccessXE3
 0001:00021908       .VA508AccessXE3.@GetPackageInfoTable
 0001:00021910       .VA508AccessXE3.@PackageLoad
 0001:0002191C       .VA508AccessXE3.@PackageUnload
 0002:00000368       BaseDock.BaseDock
 0001:00001884       BaseDock.Finalization
 0002:00000568       ColnEdit.ColnEdit
 0001:00019144       ColnEdit.Finalization
 0001:000190F4       ColnEdit.ShowCollectionEditorClass
 0001:0001913C       ColnEdit.TCollectionEditor.CanAdd
 0001:00019124       ColnEdit.TCollectionEditor.DesignerClosed
 0001:0001911C       ColnEdit.TCollectionEditor.ItemDeleted
 0001:0001912C       ColnEdit.TCollectionEditor.ItemsModified
 0001:00019134       ColnEdit.TCollectionEditor.SelectionChanged
 0001:000190FC       ColnEdit.TCollectionProperty.Edit
 0001:00019104       ColnEdit.TCollectionProperty.GetAttributes
 0001:00019114       ColnEdit.TCollectionProperty.GetColOptions
 0001:0001910C       ColnEdit.TCollectionProperty.GetEditorClass
 0002:00000550       ComponentDesigner.ComponentDesigner
 0001:0001908C       ComponentDesigner.Finalization
 0002:00000474       Data.DB.Data.DB
 0001:0000BE00       Data.DB.Finalization
 0002:0000046C       Data.FmtBcd.Data.FmtBcd
 0001:0000BDF8       Data.FmtBcd.Finalization
 0002:00000464       Data.SqlTimSt.Data.SqlTimSt
 0001:0000BDF0       Data.SqlTimSt.Finalization
 0002:000003B0       DesignEditors.DesignEditors
 0001:00001A5C       DesignEditors.Finalization
 0001:000019C4       DesignEditors.TClassProperty.GetProperties
 0001:000019CC       DesignEditors.TClassProperty.GetValue
 0001:00001A4C       DesignEditors.TComponentEditor.Copy
 0001:00001A2C       DesignEditors.TComponentEditor.Create
 0001:00001A44       DesignEditors.TComponentEditor.ExecuteVerb
 0001:00001A34       DesignEditors.TComponentEditor.GetDesigner
 0001:00001A3C       DesignEditors.TComponentEditor.GetVerb
 0001:00001A54       DesignEditors.TComponentEditor.PrepareItem
 0001:00001A14       DesignEditors.TComponentProperty.AllEqual
 0001:000019D4       DesignEditors.TComponentProperty.Edit
 0001:000019DC       DesignEditors.TComponentProperty.GetAttributes
 0001:00001A1C       DesignEditors.TComponentProperty.GetComponentReference
 0001:000019F4       DesignEditors.TComponentProperty.GetEditLimit
 0001:000019EC       DesignEditors.TComponentProperty.GetProperties
 0001:000019E4       DesignEditors.TComponentProperty.GetSelections
 0001:000019FC       DesignEditors.TComponentProperty.GetValue
 0001:00001A04       DesignEditors.TComponentProperty.GetValues
 0001:00001A0C       DesignEditors.TComponentProperty.SetValue
 0001:00001A24       DesignEditors.TComponentProperty.ShowReferenceProperty
 0001:000019B4       DesignEditors.TNestedProperty.Create
 0001:000019BC       DesignEditors.TNestedProperty.Destroy
 0001:000018FC       DesignEditors.TPropertyEditor.Activate
 0001:00001904       DesignEditors.TPropertyEditor.AllEqual
 0001:00001914       DesignEditors.TPropertyEditor.AutoFill
 0001:000018EC       DesignEditors.TPropertyEditor.Create
 0001:000018F4       DesignEditors.TPropertyEditor.Destroy
 0001:0000190C       DesignEditors.TPropertyEditor.Edit
 0001:0000191C       DesignEditors.TPropertyEditor.GetAttributes
 0001:00001924       DesignEditors.TPropertyEditor.GetComponent
 0001:0000192C       DesignEditors.TPropertyEditor.GetEditLimit
 0001:0000198C       DesignEditors.TPropertyEditor.GetIsDefault
 0001:00001934       DesignEditors.TPropertyEditor.GetName
 0001:0000193C       DesignEditors.TPropertyEditor.GetProperties
 0001:00001944       DesignEditors.TPropertyEditor.GetPropInfo
 0001:0000194C       DesignEditors.TPropertyEditor.GetPropType
 0001:0000195C       DesignEditors.TPropertyEditor.GetValues
 0001:00001954       DesignEditors.TPropertyEditor.GetValueW
 0001:00001964       DesignEditors.TPropertyEditor.Initialize
 0001:0000196C       DesignEditors.TPropertyEditor.Modified
 0001:00001974       DesignEditors.TPropertyEditor.SetPropEntry
 0001:0000197C       DesignEditors.TPropertyEditor.SetValue
 0001:00001984       DesignEditors.TPropertyEditor.SetValue
 0001:00001994       DesignEditors.TStringProperty.AllEqual
 0001:0000199C       DesignEditors.TStringProperty.GetEditLimit
 0001:000019A4       DesignEditors.TStringProperty.GetValue
 0001:000019AC       DesignEditors.TStringProperty.SetValue
 0001:00001814       DesignIntf.RegisterComponentEditor
 0001:0000181C       DesignIntf.RegisterPropertyEditor
 0001:0001909C       DesignWindows.TDesignWindow.Create
 0001:000190D4       DesignWindows.TDesignWindow.DesignerOpened
 0001:000190A4       DesignWindows.TDesignWindow.Destroy
 0001:000190B4       DesignWindows.TDesignWindow.EditAction
 0001:000190AC       DesignWindows.TDesignWindow.GetEditState
 0001:000190CC       DesignWindows.TDesignWindow.ItemInserted
 0001:000190DC       DesignWindows.TDesignWindow.UniqueName
 0001:000190BC       DesignWindows.TDesignWindow.WindowHide
 0001:000190C4       DesignWindows.TDesignWindow.WindowShow
 0002:00000378       DeskForm.DeskForm
 0001:00001894       DeskForm.Finalization
 0002:00000370       DeskUtil.DeskUtil
 0001:0000188C       DeskUtil.Finalization
 0002:00000380       DockForm.DockForm
 0001:0000189C       DockForm.Finalization
 0001:00001C10       HRParser.THRParser.GetSource
 0001:00001C20       HRParser.THRParser.NextToken
 0001:00001C18       HRParser.THRParser.SetSource
 0001:00001C28       HRParserPas.THRParserPas.Create
 0001:00019084       IDEHelp.Finalization
 0002:00000548       IDEHelp.IDEHelp
 0001:00001824       IDEMessages.Finalization
 0002:00000308       IDEMessages.IDEMessages
 0004:00000030       MSAAConstants..1
 0001:00001FDC       MSAAConstants.Finalization
 0002:000003D8       MSAAConstants.MSAAConstants
 0003:00000124       MSAAConstants.PROPID_ACC_DESCRIPTION
 0003:00000264       MSAAConstants.PROPID_ACC_DESCRIPTIONMAP
 0003:00000274       MSAAConstants.PROPID_ACC_DODEFAULTACTION
 0003:00000184       MSAAConstants.PROPID_ACC_FOCUS
 0003:00000154       MSAAConstants.PROPID_ACC_HELP
 0003:00000174       MSAAConstants.PROPID_ACC_HELPTOPIC
 0003:00000164       MSAAConstants.PROPID_ACC_KEYBOARDSHORTCUT
 0003:00000104       MSAAConstants.PROPID_ACC_NAME
 0003:000001C4       MSAAConstants.PROPID_ACC_NAV_DOWN
 0003:00000214       MSAAConstants.PROPID_ACC_NAV_FIRSTCHILD
 0003:00000224       MSAAConstants.PROPID_ACC_NAV_LASTCHILD
 0003:000001D4       MSAAConstants.PROPID_ACC_NAV_LEFT
 0003:00000204       MSAAConstants.PROPID_ACC_NAV_NEXT
 0003:000001F4       MSAAConstants.PROPID_ACC_NAV_PREV
 0003:000001E4       MSAAConstants.PROPID_ACC_NAV_RIGHT
 0003:000001B4       MSAAConstants.PROPID_ACC_NAV_UP
 0003:000001A4       MSAAConstants.PROPID_ACC_PARENT
 0003:00000134       MSAAConstants.PROPID_ACC_ROLE
 0003:00000234       MSAAConstants.PROPID_ACC_ROLEMAP
 0003:00000194       MSAAConstants.PROPID_ACC_SELECTION
 0003:00000144       MSAAConstants.PROPID_ACC_STATE
 0003:00000254       MSAAConstants.PROPID_ACC_STATEMAP
 0003:00000114       MSAAConstants.PROPID_ACC_VALUE
 0003:00000244       MSAAConstants.PROPID_ACC_VALUEMAP
 0004:0000002C       oleacc2..2
 0001:00001DA4       oleacc2..CoCAccPropServices
 0003:000000F4       oleacc2.CLASS_CAccPropServices
 0001:00001ED8       oleacc2.CoCAccPropServices.Create
 0001:00001F48       oleacc2.CoCAccPropServices.CreateRemote
 0001:00001FD4       oleacc2.Finalization
 0003:000000A4       oleacc2.IID_IAccessible
 0003:000000B4       oleacc2.IID_IAccessibleHandler
 0003:000000C4       oleacc2.IID_IAccIdentity
 0003:000000D4       oleacc2.IID_IAccPropServer
 0003:000000E4       oleacc2.IID_IAccPropServices
 0003:00000094       oleacc2.LIBID_Accessibility
 0002:000003D0       oleacc2.oleacc2
 0001:0000183C       PercentageDockTree.Finalization
 0002:00000320       PercentageDockTree.PercentageDockTree
 0001:000018E4       Proxies.Finalization
 0002:000003A8       Proxies.Proxies
 0001:0001907C       StFilSys.Finalization
 0002:00000540       StFilSys.StFilSys
 0001:00000920       SysInit...
 0001:00000970       SysInit...
 0001:00000A28       SysInit...
 0001:00000A18       SysInit...
 0001:00000984       SysInit...
 0001:000009F4       SysInit...
 0001:000009B4       SysInit...
 0001:000009CC       SysInit...
 0001:00000950       SysInit...
 0001:00000960       SysInit...
 0001:00000940       SysInit...
 0003:00000034       SysInit...
 0001:00000930       SysInit...
 0004:00000018       SysInit..1
 0001:000003F4       SysInit.@InitPkg
 0001:00000458       SysInit.@PackageLoad
 0001:00000464       SysInit.@PackageUnload
 0001:00000470       SysInit.@_delayLoadHelper2
 0001:00000750       SysInit.@_FUnloadDelayLoadedDLL2
 0001:00000860       SysInit.@_HrLoadAllImportsForDll
 0004:00000014       SysInit.@_pfnDliFailureHook2
 0004:00000010       SysInit.@_pfnDliNotifyHook2
 0001:000002E4       SysInit.AllocTlsBuffer
 0004:0000000C       SysInit.DllProc
 0001:000003A0       SysInit.ExitProcessTLS
 0001:00000368       SysInit.ExitThreadTLS
 0001:00000A38       SysInit.Finalization
 0001:0000028C       SysInit.FreeLibrary
 0001:000002C4       SysInit.GetLastError
 0001:000002DC       SysInit.GetProcAddress
 0001:000002F0       SysInit.GetTlsSize
 0004:00000004       SysInit.HInstance
 0001:000003C4       SysInit.InitializeModule
 0001:0000033C       SysInit.InitProcessTLS
 0001:000002F8       SysInit.InitThreadTLS
 0001:00000278       SysInit.InterlockedExchange
 0001:000002CC       SysInit.LoadLibraryA
 0001:00000294       SysInit.LocalAlloc
 0001:0000029C       SysInit.LocalFree
 0003:00000008       SysInit.Module
 0004:00000000       SysInit.ModuleIsLib
 0004:00000001       SysInit.ModuleIsPackage
 0003:00000004       SysInit.PtrToNil
 0001:000002D4       SysInit.RaiseException
 0001:00000918       SysInit.ShutdownDelayHelp2
 0002:00000008       SysInit.SysInit
 0001:000002A4       SysInit.TlsAlloc
 0004:0000001C       SysInit.tlsBuffer
 0001:000002AC       SysInit.TlsFree
 0001:000002B4       SysInit.TlsGetValue
 0003:00000000       SysInit.TlsIndex
 0005:00000000       SysInit.TlsLast
 0003:00000024       SysInit.TlsProc
 0001:000002BC       SysInit.TlsSetValue
 0001:000003D0       SysInit.UninitializeModule
 0004:FFFDB000       SysInit.__ImageBase
 0001:00000018       System.@AbstractError
 0001:00000208       System.@AddRefArray
 0001:000000D0       System.@AfterConstruction
 0001:000000D8       System.@BeforeDestruction
 0001:00000078       System.@CallDynaInst
 0001:000000C0       System.@ClassCreate
 0001:000000C8       System.@ClassDestroy
 0001:00000210       System.@CopyRecord
 0001:00000100       System.@DoneExcept
 0001:00000200       System.@FinalizeArray
 0001:000001F8       System.@FinalizeRecord
 0001:00000008       System.@FreeMem
 0001:00000000       System.@GetMem
 0001:000000E0       System.@HandleAnyException
 0001:000000F0       System.@HandleFinally
 0001:000000E8       System.@HandleOnException
 0001:000001F0       System.@InitializeRecord
 0001:00000120       System.@InitImports
 0001:00000238       System.@IntfCast
 0001:00000228       System.@IntfClear
 0001:00000230       System.@IntfCopy
 0001:00000070       System.@IsClass
 0001:00000138       System.@LStrClr
 0001:00000178       System.@LStrFromPWChar
 0001:00000180       System.@LStrToPChar
 0001:00000110       System.@PackageLoad
 0001:00000118       System.@PackageUnload
 0001:000000F8       System.@RaiseExcept
 0001:00000128       System.@RunError
 0001:00000108       System.@TryFinallyExit
 0001:00000170       System.@UniqueStringU
 0001:00000150       System.@UStrAddRef
 0001:00000148       System.@UStrArrayClr
 0001:00000158       System.@UStrAsg
 0001:000001B0       System.@UStrCat
 0001:000001B8       System.@UStrCat3
 0001:000001C0       System.@UStrCatN
 0001:00000130       System.@UStrClr
 0001:000001D0       System.@UStrCopy
 0001:000001D8       System.@UStrDelete
 0001:000001C8       System.@UStrEqual
 0001:00000190       System.@UStrFromPWChar
 0001:000001A0       System.@UStrFromString
 0001:00000160       System.@UStrLAsg
 0001:00000168       System.@UStrLen
 0001:000001A8       System.@UStrSetLength
 0001:00000188       System.@UStrToPWChar
 0001:00000140       System.@WStrClr
 0001:00000198       System.@WStrFromUStr
 0001:00000270       System.Finalization
 0001:00000010       System.ParamStr
 0001:000001E0       System.Pos
 0001:00000218       System.RegisterModule
 0001:000001E8       System.StringOfChar
 0002:00000000       System.System
 0001:00000240       System.TInterfacedObject.AfterConstruction
 0001:00000248       System.TInterfacedObject.BeforeDestruction
 0001:00000250       System.TInterfacedObject.NewInstance
 0001:00000258       System.TInterfacedObject.QueryInterface
 0001:00000260       System.TInterfacedObject._AddRef
 0001:00000268       System.TInterfacedObject._Release
 0001:000000A8       System.TObject.AfterConstruction
 0001:000000B0       System.TObject.BeforeDestruction
 0001:00000088       System.TObject.ClassInfo
 0001:00000028       System.TObject.ClassName
 0001:00000030       System.TObject.ClassNameIs
 0001:00000020       System.TObject.ClassType
 0001:00000048       System.TObject.Create
 0001:000000A0       System.TObject.DefaultHandler
 0001:00000050       System.TObject.Destroy
 0001:000000B8       System.TObject.Dispatch
 0001:00000060       System.TObject.Equals
 0001:00000058       System.TObject.Free
 0001:00000040       System.TObject.FreeInstance
 0001:00000068       System.TObject.GetHashCode
 0001:00000080       System.TObject.InheritsFrom
 0001:00000038       System.TObject.NewInstance
 0001:00000090       System.TObject.SafeCallException
 0001:00000098       System.TObject.ToString
 0001:00000220       System.UnregisterModule
 0001:0000107C       System.Actions.Finalization
 0002:000000F8       System.Actions.System.Actions
 0001:00000FE4       System.Classes.Finalization
 0001:00000D7C       System.Classes.RegisterComponents
 0002:000000C8       System.Classes.System.Classes
 0002:000000A8       System.Classes.TBinaryWriter.Create@
 0001:00000FCC       System.Classes.TBinaryWriter.Destroy@
 0001:00000E2C       System.Classes.TCollection.Add
 0001:00000E7C       System.Classes.TCollection.Added
 0001:00000E34       System.Classes.TCollection.Assign
 0001:00000E3C       System.Classes.TCollection.BeginUpdate
 0001:00000E44       System.Classes.TCollection.Clear
 0001:00000E1C       System.Classes.TCollection.Create
 0001:00000E84       System.Classes.TCollection.Deleting
 0001:00000E24       System.Classes.TCollection.Destroy
 0001:00000E4C       System.Classes.TCollection.EndUpdate
 0001:00000E54       System.Classes.TCollection.GetCount
 0001:00000E5C       System.Classes.TCollection.GetItem
 0001:00000E8C       System.Classes.TCollection.Notify
 0001:00000E64       System.Classes.TCollection.SetItem
 0001:00000E6C       System.Classes.TCollection.SetItemName
 0001:00000E74       System.Classes.TCollection.Update
 0001:00000DE4       System.Classes.TCollectionItem.Create
 0001:00000DEC       System.Classes.TCollectionItem.Destroy
 0001:00000DFC       System.Classes.TCollectionItem.GetDisplayName
 0001:00000DF4       System.Classes.TCollectionItem.Release
 0001:00000E04       System.Classes.TCollectionItem.SetCollection
 0001:00000E0C       System.Classes.TCollectionItem.SetDisplayName
 0001:00000E14       System.Classes.TCollectionItem.SetIndex
 0001:00000F34       System.Classes.TComponent.BeforeDestruction
 0001:00000FA4       System.Classes.TComponent.CanObserve
 0001:00000F24       System.Classes.TComponent.Create
 0002:000000B8       System.Classes.TComponent.Create@
 0001:00000F54       System.Classes.TComponent.DefineProperties
 0001:00000F2C       System.Classes.TComponent.Destroy
 0001:00000D74       System.Classes.TComponent.Destroy@
 0001:00000F3C       System.Classes.TComponent.FreeNotification
 0001:00000F84       System.Classes.TComponent.GetComponent
 0001:00000F8C       System.Classes.TComponent.GetComponentCount
 0001:00000F94       System.Classes.TComponent.GetObservers
 0001:00000F5C       System.Classes.TComponent.Loaded
 0001:00000F4C       System.Classes.TComponent.Notification
 0001:00000FAC       System.Classes.TComponent.ObserverAdded
 0001:00000FC4       System.Classes.TComponent.QueryInterface
 0001:00000F64       System.Classes.TComponent.ReadState
 0001:00000F44       System.Classes.TComponent.RemoveFreeNotification
 0001:00000FB4       System.Classes.TComponent.SafeCallException
 0001:00000F7C       System.Classes.TComponent.SetName
 0001:00000F9C       System.Classes.TComponent.UpdateAction
 0001:00000FBC       System.Classes.TComponent.UpdateRegistry
 0001:00000F74       System.Classes.TComponent.ValidateRename
 0001:00000F6C       System.Classes.TComponent.WriteState
 0001:00000ECC       System.Classes.TFiler.Create
 0001:00000EB4       System.Classes.TFileStream.Create
 0001:00000DC4       System.Classes.TInterfaceList.Add
 0001:00000DA4       System.Classes.TInterfaceList.Create
 0001:00000DAC       System.Classes.TInterfaceList.Delete
 0001:00000DB4       System.Classes.TInterfaceList.Get
 0001:00000DBC       System.Classes.TInterfaceList.GetCount
 0001:00000D84       System.Classes.TList.Add
 0001:00000D8C       System.Classes.TList.Delete
 0001:00000D94       System.Classes.TList.Get
 0001:00000D9C       System.Classes.TList.IndexOf
 0002:000000C0       System.Classes.TLoginCredentialService.Create@
 0001:00000FD4       System.Classes.TLoginCredentialService.Destroy@
 0002:000000A0       System.Classes.TObserverMapping.Create@
 0001:00000FDC       System.Classes.TObserverMapping.Destroy@
 0001:00000DCC       System.Classes.TPersistent.Assign
 0001:00000DD4       System.Classes.TPersistent.AssignTo
 0001:00000DDC       System.Classes.TPersistent.DefineProperties
 0001:00000ED4       System.Classes.TReader.EndOfList
 0001:00000EDC       System.Classes.TReader.ReadListBegin
 0001:00000EE4       System.Classes.TReader.ReadListEnd
 0001:00000EEC       System.Classes.TReader.ReadSignature
 0001:00000EF4       System.Classes.TReader.ReadStr
 0001:00000EFC       System.Classes.TReader.ReadString
 0001:00000EC4       System.Classes.TResourceStream.Create
 0001:00000EAC       System.Classes.TStream.ReadBuffer
 0001:00000EA4       System.Classes.TStream.SetPosition
 0001:00000E9C       System.Classes.TStringList.Create
 0001:00000E94       System.Classes.TStringList.SetSorted
 0001:00000EBC       System.Classes.TStringStream.Create
 0002:000000B0       System.Classes.TThread.Create@
 0001:00000F1C       System.Classes.TThread.Destroy@
 0001:00000F04       System.Classes.TWriter.WriteListBegin
 0001:00000F0C       System.Classes.TWriter.WriteListEnd
 0001:00000F14       System.Classes.TWriter.WriteString
 0001:00001064       System.Contnrs.TObjectList.Add
 0001:0000106C       System.Contnrs.TObjectList.Create
 0001:00001074       System.Contnrs.TObjectList.GetItem
 0001:00000FF4       System.DateUtils.MilliSecondSpan
 0001:00000FEC       System.DateUtils.SecondSpan
 0002:000000D0       System.DateUtils.TTimeZone.Create@
 0001:00000FFC       System.DateUtils.TTimeZone.Destroy@
 0002:00000088       System.Generics.Defaults.TIStringComparer.Create@
 0001:00000D24       System.Generics.Defaults.TIStringComparer.Destroy@
 0002:00000080       System.Generics.Defaults.TStringComparer.Create@
 0001:00000D1C       System.Generics.Defaults.TStringComparer.Destroy@
 0001:0000108C       System.HelpIntfs.Finalization
 0002:00000108       System.HelpIntfs.System.HelpIntfs
 0001:00000BA8       System.Internal.ExcUtils.Finalization
 0002:00000028       System.Internal.ExcUtils.System.Internal.ExcUtils
 0001:0000100C       System.IOUtils.Finalization
 0002:000000E0       System.IOUtils.System.IOUtils
 0002:000000D8       System.IOUtils.TPath.Create@
 0001:00001004       System.IOUtils.TPath.Destroy@
 0001:00000D04       System.Math.Finalization
 0002:00000068       System.Math.System.Math
 0001:00000D2C       System.Rtti.Finalization
 0002:00000090       System.Rtti.System.Rtti
 0001:00000CF4       System.StrUtils.LeftStr
 0001:00000CFC       System.StrUtils.RightStr
 0001:00000D14       System.SyncObjs.Finalization
 0002:00000078       System.SyncObjs.System.SyncObjs
 0001:00000BD8       System.SysUtils.AnsiCompareText
 0001:00000BD0       System.SysUtils.CompareText
 0001:00000C50       System.SysUtils.DateTimeToStr
 0001:00000C58       System.SysUtils.Exception.Create
 0002:00000040       System.SysUtils.Exception.Create@
 0001:00000C60       System.SysUtils.Exception.CreateFmt
 0001:00000C68       System.SysUtils.Exception.CreateRes
 0001:00000C70       System.SysUtils.Exception.Destroy
 0001:00000C90       System.SysUtils.Exception.Destroy@
 0001:00000C78       System.SysUtils.Exception.GetBaseException
 0001:00000C80       System.SysUtils.Exception.RaisingException
 0001:00000C88       System.SysUtils.Exception.ToString
 0001:00000C38       System.SysUtils.ExtractFileExt
 0001:00000C30       System.SysUtils.ExtractFileName
 0001:00000C28       System.SysUtils.ExtractFilePath
 0001:00000C00       System.SysUtils.FileExists
 0001:00000C08       System.SysUtils.FileGetAttr
 0001:00000CB0       System.SysUtils.Finalization
 0001:00000C20       System.SysUtils.FindClose
 0001:00000C10       System.SysUtils.FindFirst
 0001:00000C18       System.SysUtils.FindNext
 0001:00000C40       System.SysUtils.Format
 0001:00000C98       System.SysUtils.FreeAndNil
 0001:00000BF0       System.SysUtils.IntToStr
 0001:00000BE8       System.SysUtils.IntToStr
 0001:00000BC8       System.SysUtils.LowerCase
 0001:00000C48       System.SysUtils.Now
 0001:00000BF8       System.SysUtils.StrToIntDef
 0002:00000050       System.SysUtils.System.SysUtils
 0002:00000038       System.SysUtils.TEncoding.Create@
 0001:00000CA8       System.SysUtils.TEncoding.Destroy@
 0002:00000030       System.SysUtils.TLanguages.Create@
 0001:00000CA0       System.SysUtils.TLanguages.Destroy@
 0002:00000048       System.SysUtils.TOSVersion.Create@
 0001:00000BB0       System.SysUtils.TOSVersion.Destroy@
 0001:00000BE0       System.SysUtils.Trim
 0001:00000BB8       System.SysUtils.TSearchRec.GetTimeStamp
 0001:00000BC0       System.SysUtils.UpperCase
 0002:00000070       System.TimeSpan.TTimeSpan.Create@
 0001:00000D0C       System.TimeSpan.TTimeSpan.Destroy@
 0001:00000D6C       System.TypInfo.Finalization
 0001:00000D4C       System.TypInfo.GetEnumName
 0001:00000D54       System.TypInfo.GetEnumValue
 0001:00000D34       System.TypInfo.GetObjectProp
 0001:00000D64       System.TypInfo.GetPropList
 0001:00000D3C       System.TypInfo.GetPropValue
 0001:00000D44       System.TypInfo.GetTypeData
 0001:00000D5C       System.TypInfo.IsPublishedProp
 0002:00000098       System.TypInfo.System.TypInfo
 0001:00000CD0       System.Variants.@OleVarFromUStr
 0001:00000CC0       System.Variants.@VarClr
 0001:00000CC8       System.Variants.@VarToUStr
 0001:00000CD8       System.Variants.Finalization
 0002:00000060       System.Variants.System.Variants
 0001:00000CB8       System.VarUtils.Finalization
 0002:00000058       System.VarUtils.System.VarUtils
 0001:00001544       System.Win.ComObj.CreateComObject
 0001:0000154C       System.Win.ComObj.CreateRemoteComObject
 0001:00001554       System.Win.ComObj.Finalization
 0001:0000153C       System.Win.ComObj.OleCheck
 0002:000002F8       System.Win.ComObj.System.Win.ComObj
 0002:000002F0       System.Win.ComObj.TComServerObject.Create@
 0001:00001534       System.Win.ComObj.TComServerObject.Destroy@
 0002:000000E8       System.Win.Registry.TRegistry.Create@
 0001:00001014       System.Win.Registry.TRegistry.Destroy@
 0001:000018DC       ToolsAPI.Finalization
 0001:000018BC       ToolsAPI.TNotifierObject.AfterSave
 0001:000018C4       ToolsAPI.TNotifierObject.BeforeSave
 0001:000018CC       ToolsAPI.TNotifierObject.Destroyed
 0001:000018D4       ToolsAPI.TNotifierObject.Modified
 0002:000003A0       ToolsAPI.ToolsAPI
 0001:000190EC       ToolWnds.Finalization
 0002:00000560       ToolWnds.ToolWnds
 0001:000190E4       ToolWnds.TToolbarDesignWindow.ResizeButtons
 0001:00019074       TopLevels.Finalization
 0002:00000538       TopLevels.TopLevels
 0001:0001906C       TreeIntf.Finalization
 0002:00000530       TreeIntf.TreeIntf
 0004:0000006C       VA508AccessibilityCompileInfo..2
 0001:00018640       VA508AccessibilityCompileInfo..TfrmProgress
 0001:0001900C       VA508AccessibilityCompileInfo.Finalization
 0003:00000344       VA508AccessibilityCompileInfo.frmProgress
 0001:00018C7C       VA508AccessibilityCompileInfo.Hookup
 0001:00018D30       VA508AccessibilityCompileInfo.StartMonitor
 0001:00018DB8       VA508AccessibilityCompileInfo.StopMonitor
 0001:00018F70       VA508AccessibilityCompileInfo.TfrmProgress.btnReleaseClick
 0001:00018FB4       VA508AccessibilityCompileInfo.TfrmProgress.FormCreate
 0004:00000080       VA508AccessibilityCompileInfo.uLastUpdate
 0001:00018DD0       VA508AccessibilityCompileInfo.Update508Monitor
 0004:00000070       VA508AccessibilityCompileInfo.uProjectText
 0004:00000088       VA508AccessibilityCompileInfo.uStartTime
 0004:00000078       VA508AccessibilityCompileInfo.uStopProc
 0002:000004F0       VA508AccessibilityCompileInfo.VA508AccessibilityCompileInfo
 0004:00000094       VA508AccessibilityCompiler..2
 0001:0001B70C       VA508AccessibilityCompiler..TVA508Compiler
 0001:0001C98C       VA508AccessibilityCompiler.Add2Cache
 0001:0001DC44       VA508AccessibilityCompiler.AttemptAutoFix
 0001:0001CD64       VA508AccessibilityCompiler.ClearWarningList
 0001:0001DBBC       VA508AccessibilityCompiler.CloseEditor
 0001:0001E950       VA508AccessibilityCompiler.CloseModules
 0001:0001F024       VA508AccessibilityCompiler.CreateResources
 0001:0001F214       VA508AccessibilityCompiler.DestroyResources
 0001:0001D764       VA508AccessibilityCompiler.DFMSuccessfullyLoaded
 0001:0001B9B0       VA508AccessibilityCompiler.DLLUnload
 0001:0001BAF4       VA508AccessibilityCompiler.Do508Scan
 0001:0001D5C4       VA508AccessibilityCompiler.FileLoaded
 0001:0001F454       VA508AccessibilityCompiler.Finalization
 0001:0001CC9C       VA508AccessibilityCompiler.GetComponentName
 0001:0001CA00       VA508AccessibilityCompiler.GetDFMFileName
 0001:0001CE4C       VA508AccessibilityCompiler.GetManagerInfo
 0001:0001BA0C       VA508AccessibilityCompiler.GetPluralStr
 0001:0001CDDC       VA508AccessibilityCompiler.GetWarningList
 0001:0001E2EC       VA508AccessibilityCompiler.HandleInheritenceProblems
 0001:0001B9D0       VA508AccessibilityCompiler.HaveMessageServices
 0001:0001C8C4       VA508AccessibilityCompiler.IncCacheIndexes
 0001:0001F2F8       VA508AccessibilityCompiler.Init
 0001:0001D330       VA508AccessibilityCompiler.InitCache
 0001:0001E298       VA508AccessibilityCompiler.IsFileReadOnly
 0001:0001EAF4       VA508AccessibilityCompiler.LoadCacheFile
 0001:0001C1E8       VA508AccessibilityCompiler.MessageOK
 0004:0000009C       VA508AccessibilityCompiler.MessageService
 0003:00000348       VA508AccessibilityCompiler.NotifierIndex
 0003:0000034C       VA508AccessibilityCompiler.NotifierRegistered
 0001:0001DB24       VA508AccessibilityCompiler.OpenEditor
 0001:0001B910       VA508AccessibilityCompiler.Register
 0001:0001D1E8       VA508AccessibilityCompiler.ReportComponentWarnings
 0001:0001EE40       VA508AccessibilityCompiler.SaveCacheFile
 0004:00000098       VA508AccessibilityCompiler.SaveDllProc
 0001:0001D850       VA508AccessibilityCompiler.ScanForErrors
 0001:0001DA50       VA508AccessibilityCompiler.ScanFormFiles
 0001:0001C930       VA508AccessibilityCompiler.SetCacheSize
 0001:0001BA4C       VA508AccessibilityCompiler.ShowErrorMessage
 0001:0001C038       VA508AccessibilityCompiler.TVA508Compiler.AfterCompile
 0001:0001C048       VA508AccessibilityCompiler.TVA508Compiler.AfterCompile
 0001:0001C06C       VA508AccessibilityCompiler.TVA508Compiler.AfterCompile
 0001:0001BFF8       VA508AccessibilityCompiler.TVA508Compiler.BeforeCompile
 0001:0001C024       VA508AccessibilityCompiler.TVA508Compiler.BeforeCompile
 0001:0001C090       VA508AccessibilityCompiler.TVA508Compiler.CompileNA
 0001:0001C0BC       VA508AccessibilityCompiler.TVA508Compiler.Create
 0001:0001C11C       VA508AccessibilityCompiler.TVA508Compiler.Destroy
 0001:0001C580       VA508AccessibilityCompiler.TVA508Compiler.error
 0001:0001C780       VA508AccessibilityCompiler.TVA508Compiler.FileNotification
 0001:0001C7E0       VA508AccessibilityCompiler.TVA508Compiler.infoMessage
 0001:0001C724       VA508AccessibilityCompiler.TVA508Compiler.msg
 0001:0001F35C       VA508AccessibilityCompiler.TVA508Compiler.ScanFor508Errors
 0001:0001C16C       VA508AccessibilityCompiler.TVA508Compiler.startMessages
 0001:0001C158       VA508AccessibilityCompiler.TVA508Compiler.StopCompile
 0001:0001C330       VA508AccessibilityCompiler.TVA508Compiler.stopMessages
 0001:0001C4EC       VA508AccessibilityCompiler.TVA508Compiler.UpdateMonitor
 0001:0001C650       VA508AccessibilityCompiler.TVA508Compiler.warning
 0001:0001B914       VA508AccessibilityCompiler.Unregister
 0002:00000578       VA508AccessibilityCompiler.VA508AccessibilityCompiler
 0001:0001CBF4       VA508AccessibilityCompiler.ValidateDFM
 0001:0001CA98       VA508AccessibilityCompiler.ValidObjectLine
 0004:00000028       VA508AccessibilityConst..1
 0001:00001C08       VA508AccessibilityConst.Finalization
 0002:000003C0       VA508AccessibilityConst.VA508AccessibilityConst
 0004:00000060       VA508AccessibilityManager..21
 0001:00013618       VA508AccessibilityManager..TAlternateHandleData
 0001:00017E40       VA508AccessibilityManager..TComplexDataItem
 0001:00010524       VA508AccessibilityManager..TComponentHelper
 0001:00011238       VA508AccessibilityManager..TDFMData
 0001:00011378       VA508AccessibilityManager..TMSAAData
 0001:0000DFB0       VA508AccessibilityManager..TVA508AccessibilityCollection
 0001:0000DBA0       VA508AccessibilityManager..TVA508AccessibilityItem
 0001:0000E2CC       VA508AccessibilityManager..TVA508AccessibilityManager
 0001:0000F6D4       VA508AccessibilityManager..TVA508ChainedLabel
 0001:00010130       VA508AccessibilityManager..TVA508ComplexComponentManager
 0001:0000E9B8       VA508AccessibilityManager..TVA508ComponentAccessibility
 0001:0000EF98       VA508AccessibilityManager..TVA508ComponentManager
 0001:0000FFA0       VA508AccessibilityManager..TVA508ManagedComponentClass
 0001:0000FD0C       VA508AccessibilityManager..TVA508SilentComponent
 0001:0000F8C4       VA508AccessibilityManager..TVA508StaticText
 0001:00010E74       VA508AccessibilityManager..TVAGlobalComponentRegistry
 0001:00013F94       VA508AccessibilityManager.AddControlType
 0001:0001248C       VA508AccessibilityManager.AddLabels
 0003:00000330       VA508AccessibilityManager.AltHandleClasses
 0001:00012278       VA508AccessibilityManager.BasicComponentCheck
 0003:00000340       VA508AccessibilityManager.CanCheckEvent
 0001:00015068       VA508AccessibilityManager.CheckComplexClasses
 0001:00014F9C       VA508AccessibilityManager.CheckManagedClasses
 0003:00000338       VA508AccessibilityManager.ComplexClasses
 0003:000002E0       VA508AccessibilityManager.ControlsWithDefaultPropertySettings
 0001:00011460       VA508AccessibilityManager.CreateGlobalRegistry
 0001:00011488       VA508AccessibilityManager.CreateGlobalVars
 0001:000150F0       VA508AccessibilityManager.CreateHelper
 0001:00017C6C       VA508AccessibilityManager.DrawBottom
 0001:00017450       VA508AccessibilityManager.DrawBottom
 0001:00017AB4       VA508AccessibilityManager.DrawPartials
 0001:00017C04       VA508AccessibilityManager.DrawSides
 0001:00017940       VA508AccessibilityManager.DrawText
 0001:00017B64       VA508AccessibilityManager.DrawTop
 0001:000173E8       VA508AccessibilityManager.DrawTop
 0001:00012208       VA508AccessibilityManager.error
 0001:0001862C       VA508AccessibilityManager.Finalization
 0001:000138E0       VA508AccessibilityManager.FindMSAAQueryData
 0001:00011F98       VA508AccessibilityManager.FindOwnedComponent
 0001:0001581C       VA508AccessibilityManager.FindRootHandle
 0001:000114AC       VA508AccessibilityManager.FreeGlobalVars
 0001:00014398       VA508AccessibilityManager.GetDataValues
 0001:00014818       VA508AccessibilityManager.GetMessageHookProc
 0003:0000032C       VA508AccessibilityManager.GlobalRegistry
 0001:00013A00       VA508AccessibilityManager.HandleStillValid
 0001:00014144       VA508AccessibilityManager.HelperValid
 0001:000172D8       VA508AccessibilityManager.Init
 0001:00013AB8       VA508AccessibilityManager.Init
 0001:000178E0       VA508AccessibilityManager.Init
 0001:000179D0       VA508AccessibilityManager.InitDrawBorder
 0001:00017338       VA508AccessibilityManager.InitDrawBorder
 0001:00016190       VA508AccessibilityManager.InitializeComponentHelper
 0001:000142EC       VA508AccessibilityManager.InitializeVars
 0003:00000334       VA508AccessibilityManager.ManagedClasses
 0003:00000328       VA508AccessibilityManager.MasterPropertyList
 0003:0000033C       VA508AccessibilityManager.MSAAQueryClasses
 0003:00000310       VA508AccessibilityManager.NewComponentData
 0001:00013A3C       VA508AccessibilityManager.NoChangeNeeded
 0001:00013B0C       VA508AccessibilityManager.ProcessCaptionChange
 0001:00013BC8       VA508AccessibilityManager.ProcessItemChange
 0001:00013ECC       VA508AccessibilityManager.ProcessStateChange
 0001:0001370C       VA508AccessibilityManager.RegisterAlternateHandleComponent
 0001:000137B0       VA508AccessibilityManager.RegisterComplexComponentManager
 0001:00015190       VA508AccessibilityManager.RegisterComponent
 0001:00013844       VA508AccessibilityManager.RegisterManagedComponentClass
 0001:00013948       VA508AccessibilityManager.RegisterMSAAProc
 0001:000139C0       VA508AccessibilityManager.RegisterMSAAQueryClassProc
 0001:000139E0       VA508AccessibilityManager.RegisterMSAAQueryListClassProc
 0001:00014014       VA508AccessibilityManager.SendChangeData
 0001:00015324       VA508AccessibilityManager.SkipCheck
 0001:00017FC4       VA508AccessibilityManager.TComplexDataItem.Create
 0001:00018038       VA508AccessibilityManager.TComplexDataItem.Destroy
 0001:000163DC       VA508AccessibilityManager.TComponentHelper.ClearRedirect
 0001:00016400       VA508AccessibilityManager.TComponentHelper.Create
 0001:00016440       VA508AccessibilityManager.TComponentHelper.Destroy
 0001:000164C0       VA508AccessibilityManager.TComponentHelper.GetCaption
 0001:000165A8       VA508AccessibilityManager.TComponentHelper.GetComponentName
 0001:0001667C       VA508AccessibilityManager.TComponentHelper.GetData
 0001:00016738       VA508AccessibilityManager.TComponentHelper.GetInstructions
 0001:0001680C       VA508AccessibilityManager.TComponentHelper.GetItem
 0001:0001689C       VA508AccessibilityManager.TComponentHelper.GetItemInstructions
 0001:00016970       VA508AccessibilityManager.TComponentHelper.GetState
 0001:00016A58       VA508AccessibilityManager.TComponentHelper.GetValue
 0001:00016348       VA508AccessibilityManager.TComponentHelper.InitializeComponentManager
 0001:00016D3C       VA508AccessibilityManager.TComponentHelper.ManageCaption
 0001:00016B04       VA508AccessibilityManager.TComponentHelper.ManageComponentName
 0001:00016B80       VA508AccessibilityManager.TComponentHelper.ManageData
 0001:00016BD4       VA508AccessibilityManager.TComponentHelper.ManageInstructions
 0001:00016C50       VA508AccessibilityManager.TComponentHelper.ManageItemInstructions
 0001:00016CCC       VA508AccessibilityManager.TComponentHelper.ManageValue
 0001:00016DB8       VA508AccessibilityManager.TComponentHelper.MonitorForItemChange
 0001:00016E28       VA508AccessibilityManager.TComponentHelper.MonitorForStateChange
 0001:00016EB4       VA508AccessibilityManager.TComponentHelper.Redirect
 0001:00016EEC       VA508AccessibilityManager.TComponentHelper.StandardComponent
 0001:00011A5C       VA508AccessibilityManager.TVA508AccessibilityCollection.Add
 0001:00011A78       VA508AccessibilityManager.TVA508AccessibilityCollection.ComponentNotifyEvent
 0001:00011AD8       VA508AccessibilityManager.TVA508AccessibilityCollection.Create
 0001:00011B74       VA508AccessibilityManager.TVA508AccessibilityCollection.Destroy
 0001:00011BCC       VA508AccessibilityManager.TVA508AccessibilityCollection.EnsureItemExists
 0001:00011BEC       VA508AccessibilityManager.TVA508AccessibilityCollection.FindItem
 0001:00011CA0       VA508AccessibilityManager.TVA508AccessibilityCollection.GetItem
 0001:00011CC4       VA508AccessibilityManager.TVA508AccessibilityCollection.GetOwner
 0001:00011CE0       VA508AccessibilityManager.TVA508AccessibilityCollection.IsComponentRegistered
 0001:00011E10       VA508AccessibilityManager.TVA508AccessibilityCollection.RegisterComponent
 0001:00011DEC       VA508AccessibilityManager.TVA508AccessibilityCollection.SetItem
 0001:00011D50       VA508AccessibilityManager.TVA508AccessibilityCollection.UnregisterComponent
 0001:00011524       VA508AccessibilityManager.TVA508AccessibilityItem.Assign
 0001:000115B8       VA508AccessibilityManager.TVA508AccessibilityItem.Create
 0001:00011600       VA508AccessibilityManager.TVA508AccessibilityItem.Destroy
 0001:00011658       VA508AccessibilityManager.TVA508AccessibilityItem.GetDisplayName
 0001:00011720       VA508AccessibilityManager.TVA508AccessibilityItem.InitComponent
 0001:00011758       VA508AccessibilityManager.TVA508AccessibilityItem.Manager
 0001:00011774       VA508AccessibilityManager.TVA508AccessibilityItem.Parent
 0001:00011790       VA508AccessibilityManager.TVA508AccessibilityItem.SetComponent
 0001:0001181C       VA508AccessibilityManager.TVA508AccessibilityItem.SetDefault
 0001:000118D4       VA508AccessibilityManager.TVA508AccessibilityItem.SetLabel
 0001:00011920       VA508AccessibilityManager.TVA508AccessibilityItem.SetProperty
 0001:000119A0       VA508AccessibilityManager.TVA508AccessibilityItem.SetText
 0001:000119F4       VA508AccessibilityManager.TVA508AccessibilityItem.UpdateStatus
 0001:00011EBC       VA508AccessibilityManager.TVA508AccessibilityManager.Create
 0001:00012C30       VA508AccessibilityManager.TVA508AccessibilityManager.DefineProperties
 0001:00011F34       VA508AccessibilityManager.TVA508AccessibilityManager.Destroy
 0001:00012048       VA508AccessibilityManager.TVA508AccessibilityManager.FindComponentOnForm
 0001:00012150       VA508AccessibilityManager.TVA508AccessibilityManager.GetAccessLabel
 0001:0001217C       VA508AccessibilityManager.TVA508AccessibilityManager.GetAccessProperty
 0001:000121AC       VA508AccessibilityManager.TVA508AccessibilityManager.GetAccessText
 0001:000121DC       VA508AccessibilityManager.TVA508AccessibilityManager.GetComponentManager
 0001:0001230C       VA508AccessibilityManager.TVA508AccessibilityManager.GetComponentName
 0001:000123A0       VA508AccessibilityManager.TVA508AccessibilityManager.GetData
 0001:000123BC       VA508AccessibilityManager.TVA508AccessibilityManager.GetDefaultStringProperty
 0001:000125CC       VA508AccessibilityManager.TVA508AccessibilityManager.GetLabelStrings
 0001:000125F4       VA508AccessibilityManager.TVA508AccessibilityManager.GetProperties
 0001:0001261C       VA508AccessibilityManager.TVA508AccessibilityManager.GetPropertList
 0001:000127D0       VA508AccessibilityManager.TVA508AccessibilityManager.GetRootComponent
 0001:000128DC       VA508AccessibilityManager.TVA508AccessibilityManager.GetUseDefault
 0001:000134E4       VA508AccessibilityManager.TVA508AccessibilityManager.Initialize
 0001:00012908       VA508AccessibilityManager.TVA508AccessibilityManager.IsPropertyNameValid
 0001:0001297C       VA508AccessibilityManager.TVA508AccessibilityManager.Loaded
 0001:00012B88       VA508AccessibilityManager.TVA508AccessibilityManager.Notification
 0001:00012BEC       VA508AccessibilityManager.TVA508AccessibilityManager.OwnerCheck
 0001:00012C88       VA508AccessibilityManager.TVA508AccessibilityManager.ReadData
 0001:00012F48       VA508AccessibilityManager.TVA508AccessibilityManager.RefreshComponents
 0001:000131E4       VA508AccessibilityManager.TVA508AccessibilityManager.ScreenReaderInquiry
 0001:0001335C       VA508AccessibilityManager.TVA508AccessibilityManager.SetAccessLabel
 0001:00013388       VA508AccessibilityManager.TVA508AccessibilityManager.SetAccessProperty
 0001:000133B4       VA508AccessibilityManager.TVA508AccessibilityManager.SetAccessText
 0001:000133E0       VA508AccessibilityManager.TVA508AccessibilityManager.SetComponentManager
 0001:0001340C       VA508AccessibilityManager.TVA508AccessibilityManager.SetUseDefault
 0001:00012F5C       VA508AccessibilityManager.TVA508AccessibilityManager.WriteData
 0001:00017878       VA508AccessibilityManager.TVA508ChainedLabel.Notification
 0001:00017D30       VA508AccessibilityManager.TVA508ChainedLabel.Paint
 0001:00017D9C       VA508AccessibilityManager.TVA508ChainedLabel.SetNextLabel
 0001:00018080       VA508AccessibilityManager.TVA508ComplexComponentManager.AddSubControl
 0001:000181C8       VA508AccessibilityManager.TVA508ComplexComponentManager.ClearSubControls
 0001:000184DC       VA508AccessibilityManager.TVA508ComplexComponentManager.ComponentNotifyEvent
 0001:0001826C       VA508AccessibilityManager.TVA508ComplexComponentManager.Create
 0001:00018310       VA508AccessibilityManager.TVA508ComplexComponentManager.Destroy
 0001:00018370       VA508AccessibilityManager.TVA508ComplexComponentManager.GetSubComponentList
 0001:000183E0       VA508AccessibilityManager.TVA508ComplexComponentManager.GetSubControl
 0001:0001841C       VA508AccessibilityManager.TVA508ComplexComponentManager.IndexOfComponentItem
 0001:0001847C       VA508AccessibilityManager.TVA508ComplexComponentManager.IndexOfSubComponentXRef
 0001:00010440       VA508AccessibilityManager.TVA508ComplexComponentManager.Refresh
 0001:00018134       VA508AccessibilityManager.TVA508ComplexComponentManager.RemoveSubControl
 0001:0001853C       VA508AccessibilityManager.TVA508ComplexComponentManager.SubComponentNotifyEvent
 0001:000185AC       VA508AccessibilityManager.TVA508ComplexComponentManager.SubControlCount
 0001:00015F2C       VA508AccessibilityManager.TVA508ComponentAccessibility.Create
 0001:00015F88       VA508AccessibilityManager.TVA508ComponentAccessibility.SetComponent
 0001:00015B54       VA508AccessibilityManager.TVA508ComponentManager.Create
 0001:0000F6CC       VA508AccessibilityManager.TVA508ComponentManager.Create
 0001:00015B9C       VA508AccessibilityManager.TVA508ComponentManager.GetCaption
 0001:00015BB8       VA508AccessibilityManager.TVA508ComponentManager.GetComponentName
 0001:00015BD4       VA508AccessibilityManager.TVA508ComponentManager.GetData
 0001:00015C24       VA508AccessibilityManager.TVA508ComponentManager.GetInstructions
 0001:00015C40       VA508AccessibilityManager.TVA508ComponentManager.GetItem
 0001:00015C58       VA508AccessibilityManager.TVA508ComponentManager.GetItemInstructions
 0001:00015C74       VA508AccessibilityManager.TVA508ComponentManager.GetState
 0001:00015C90       VA508AccessibilityManager.TVA508ComponentManager.GetValue
 0001:00015CAC       VA508AccessibilityManager.TVA508ComponentManager.ManageCaption
 0001:00015CCC       VA508AccessibilityManager.TVA508ComponentManager.ManageComponentName
 0001:00015CEC       VA508AccessibilityManager.TVA508ComponentManager.ManageData
 0001:00015D0C       VA508AccessibilityManager.TVA508ComponentManager.ManageInstructions
 0001:00015D2C       VA508AccessibilityManager.TVA508ComponentManager.ManageItemInstructions
 0001:00015D4C       VA508AccessibilityManager.TVA508ComponentManager.ManageState
 0001:00015D6C       VA508AccessibilityManager.TVA508ComponentManager.ManageValue
 0001:00015D8C       VA508AccessibilityManager.TVA508ComponentManager.MonitorForItemChange
 0001:00015DAC       VA508AccessibilityManager.TVA508ComponentManager.MonitorForStateChange
 0001:00015DCC       VA508AccessibilityManager.TVA508ComponentManager.Redirect
 0001:00015DF0       VA508AccessibilityManager.TVA508ComponentManager.RedirectsComponent
 0001:00015E10       VA508AccessibilityManager.TVA508ManagedComponentClass.Create
 0001:00015E6C       VA508AccessibilityManager.TVA508SilentComponent.GetComponentName
 0001:00015E9C       VA508AccessibilityManager.TVA508SilentComponent.GetInstructions
 0001:00015ECC       VA508AccessibilityManager.TVA508SilentComponent.GetState
 0001:00015EFC       VA508AccessibilityManager.TVA508SilentComponent.GetValue
 0001:00016F18       VA508AccessibilityManager.TVA508StaticText.CMFontChanged
 0001:00016F3C       VA508AccessibilityManager.TVA508StaticText.CMTextChanged
 0001:00016F60       VA508AccessibilityManager.TVA508StaticText.Create
 0001:0001700C       VA508AccessibilityManager.TVA508StaticText.DeleteChain
 0001:000170E8       VA508AccessibilityManager.TVA508StaticText.Destroy
 0001:00017138       VA508AccessibilityManager.TVA508StaticText.DoEnter
 0001:00017174       VA508AccessibilityManager.TVA508StaticText.DoExit
 0001:000171B0       VA508AccessibilityManager.TVA508StaticText.GetAlignment
 0001:000171D4       VA508AccessibilityManager.TVA508StaticText.GetLabelCaption
 0001:000171F8       VA508AccessibilityManager.TVA508StaticText.GetRootName
 0001:00017218       VA508AccessibilityManager.TVA508StaticText.GetShowAccelChar
 0001:0001723C       VA508AccessibilityManager.TVA508StaticText.InvalidateAll
 0001:00017284       VA508AccessibilityManager.TVA508StaticText.Notification
 0001:00017570       VA508AccessibilityManager.TVA508StaticText.Paint
 0001:0001759C       VA508AccessibilityManager.TVA508StaticText.SetAlignment
 0001:000175C0       VA508AccessibilityManager.TVA508StaticText.SetLabelCaption
 0001:000176D0       VA508AccessibilityManager.TVA508StaticText.SetNextLabel
 0001:00017758       VA508AccessibilityManager.TVA508StaticText.SetParent
 0001:00017638       VA508AccessibilityManager.TVA508StaticText.SetRootName
 0001:000177C4       VA508AccessibilityManager.TVA508StaticText.SetShowAccelChar
 0001:000177E8       VA508AccessibilityManager.TVA508StaticText.UpdateSize
 0001:00014078       VA508AccessibilityManager.TVAGlobalComponentRegistry.CheckForChangeEvent
 0001:000145F8       VA508AccessibilityManager.TVAGlobalComponentRegistry.ComponentDataNeededEvent
 0001:000148C0       VA508AccessibilityManager.TVAGlobalComponentRegistry.Create
 0001:000149FC       VA508AccessibilityManager.TVAGlobalComponentRegistry.Destroy
 0004:00000064       VA508AccessibilityManager.TVAGlobalComponentRegistry.FActive
 0004:00000068       VA508AccessibilityManager.TVAGlobalComponentRegistry.FGetMsgHookHandle
 0001:00014A90       VA508AccessibilityManager.TVAGlobalComponentRegistry.GetCompKey
 0001:00014AB0       VA508AccessibilityManager.TVAGlobalComponentRegistry.GetComponentHandle
 0001:00014C64       VA508AccessibilityManager.TVAGlobalComponentRegistry.GetComponentHelper
 0001:00014BB4       VA508AccessibilityManager.TVAGlobalComponentRegistry.GetFieldObject
 0001:00014D24       VA508AccessibilityManager.TVAGlobalComponentRegistry.HasHandle
 0001:000152BC       VA508AccessibilityManager.TVAGlobalComponentRegistry.RegisterComponent
 0001:00014E38       VA508AccessibilityManager.TVAGlobalComponentRegistry.RegisterFieldObject
 0001:00014F38       VA508AccessibilityManager.TVAGlobalComponentRegistry.RegisterMSAA
 0001:00015350       VA508AccessibilityManager.TVAGlobalComponentRegistry.TimerEvent
 0001:00015484       VA508AccessibilityManager.TVAGlobalComponentRegistry.UnregisterComponent
 0001:000155D0       VA508AccessibilityManager.TVAGlobalComponentRegistry.UnregisterMSAA
 0001:00015AC8       VA508AccessibilityManager.TVAGlobalComponentRegistry.UpdateHandles
 0001:00013438       VA508AccessibilityManager.Update
 0001:000158B8       VA508AccessibilityManager.UpdateAllHandles
 0001:00015930       VA508AccessibilityManager.UpdateChildrenHandles
 0001:00012AC8       VA508AccessibilityManager.UpdateComponent
 0001:000141F4       VA508AccessibilityManager.UpdateComponentData
 0001:00015634       VA508AccessibilityManager.UpdateHandle
 0002:000004D8       VA508AccessibilityManager.VA508AccessibilityManager
 0004:00000090       VA508AccessibilityPE..8
 0001:00019E20       VA508AccessibilityPE..TVA508AccessibilityComponentPropertyEditor
 0001:0001990C       VA508AccessibilityPE..TVA508AccessibilityLabelPropertyEditor
 0001:0001914C       VA508AccessibilityPE..TVA508AccessibilityManager4PE
 0001:00019254       VA508AccessibilityPE..TVA508AccessibilityPropertyMapper
 0001:00019B88       VA508AccessibilityPE..TVA508AccessibilityPropertyPropertyEditor
 0001:000197BC       VA508AccessibilityPE..TVA508CollectionPropertyEditor
 0001:0001944C       VA508AccessibilityPE..TVA508NestedPropertyEditor
 0001:0001A070       VA508AccessibilityPE.AllComponentsHaveSameManager
 0001:0001B5DC       VA508AccessibilityPE.Finalization
 0001:00019F8C       VA508AccessibilityPE.GetAccessibilityManager
 0001:0001A0D8       VA508AccessibilityPE.GetStringPropertyNames
 0001:0001A1BC       VA508AccessibilityPE.QVal
 0001:0001B458       VA508AccessibilityPE.Register
 0001:0001A240       VA508AccessibilityPE.StripQVal
 0001:0001B438       VA508AccessibilityPE.TVA508AccessibilityComponentPropertyEditor.GetAttributes
 0001:0001AE4C       VA508AccessibilityPE.TVA508AccessibilityLabelPropertyEditor.GetAttributes
 0001:0001AE6C       VA508AccessibilityPE.TVA508AccessibilityLabelPropertyEditor.GetManager
 0001:0001AEA4       VA508AccessibilityPE.TVA508AccessibilityLabelPropertyEditor.GetProperties
 0001:0001AEB0       VA508AccessibilityPE.TVA508AccessibilityLabelPropertyEditor.GetValue
 0001:0001AF54       VA508AccessibilityPE.TVA508AccessibilityLabelPropertyEditor.GetValues
 0001:0001B018       VA508AccessibilityPE.TVA508AccessibilityLabelPropertyEditor.SetValue
 0001:0001A2D0       VA508AccessibilityPE.TVA508AccessibilityPropertyMapper.GetAttributes
 0001:0001A30C       VA508AccessibilityPE.TVA508AccessibilityPropertyMapper.GetProperties
 0001:0001B070       VA508AccessibilityPE.TVA508AccessibilityPropertyPropertyEditor.AllEqual
 0001:0001B130       VA508AccessibilityPE.TVA508AccessibilityPropertyPropertyEditor.GetAttributes
 0001:0001B150       VA508AccessibilityPE.TVA508AccessibilityPropertyPropertyEditor.GetEditLimit
 0001:0001B168       VA508AccessibilityPE.TVA508AccessibilityPropertyPropertyEditor.GetManager
 0001:0001B1A0       VA508AccessibilityPE.TVA508AccessibilityPropertyPropertyEditor.GetRootComponent
 0001:0001B1C4       VA508AccessibilityPE.TVA508AccessibilityPropertyPropertyEditor.GetValue
 0001:0001B264       VA508AccessibilityPE.TVA508AccessibilityPropertyPropertyEditor.GetValues
 0001:0001B3E0       VA508AccessibilityPE.TVA508AccessibilityPropertyPropertyEditor.SetValue
 0001:0001AE30       VA508AccessibilityPE.TVA508CollectionPropertyEditor.GetColOptions
 0001:0001A454       VA508AccessibilityPE.TVA508NestedPropertyEditor.AllEqual
 0001:0001A68C       VA508AccessibilityPE.TVA508NestedPropertyEditor.Create
 0001:0001A730       VA508AccessibilityPE.TVA508NestedPropertyEditor.Edit
 0001:0001A7B0       VA508AccessibilityPE.TVA508NestedPropertyEditor.GetAttributes
 0001:0001A814       VA508AccessibilityPE.TVA508NestedPropertyEditor.GetEditLimit
 0001:0001A850       VA508AccessibilityPE.TVA508NestedPropertyEditor.GetName
 0001:0001A870       VA508AccessibilityPE.TVA508NestedPropertyEditor.GetValue
 0001:0001AA2C       VA508AccessibilityPE.TVA508NestedPropertyEditor.GetValues
 0001:0001AC6C       VA508AccessibilityPE.TVA508NestedPropertyEditor.SetValue
 0002:00000570       VA508AccessibilityPE.VA508AccessibilityPE
 0004:00000050       VA508AccessibilityRouter..2
 0001:000056DC       VA508AccessibilityRouter..TMasterScreenReader
 0001:0000537C       VA508AccessibilityRouter..TNullScreenReader
 0001:00005168       VA508AccessibilityRouter..TVA508ScreenReader
 0003:000002C8       VA508AccessibilityRouter.ActiveScreenReader
 0001:00006E90       VA508AccessibilityRouter.AddDescription
 0003:000002DA       VA508AccessibilityRouter.CheckScreenReaderSystemActive
 0001:000065EC       VA508AccessibilityRouter.Coded
 0001:00007248       VA508AccessibilityRouter.ComponentDataRequested
 0001:00006130       VA508AccessibilityRouter.CreateTimer
 0001:000063E0       VA508AccessibilityRouter.Decode
 0001:00006ADC       VA508AccessibilityRouter.EnsureDialogAreSpecified
 0001:00006A7C       VA508AccessibilityRouter.EnumResNameProc
 0001:00007534       VA508AccessibilityRouter.Finalization
 0001:00005BD0       VA508AccessibilityRouter.GetScreenReader
 0003:000002CC       VA508AccessibilityRouter.MasterScreenReader
 0003:000002D8       VA508AccessibilityRouter.Need2RegisterData
 0003:000002D9       VA508AccessibilityRouter.OK2RegisterData
 0001:00005C24       VA508AccessibilityRouter.PostScreenReaderCheckEvent
 0003:000002D4       VA508AccessibilityRouter.SaveInitProc
 0001:00006194       VA508AccessibilityRouter.ScreenReaderSystemActive
 0001:00006288       VA508AccessibilityRouter.SpecifyFormIsNotADialog
 0001:00006348       VA508AccessibilityRouter.TMasterScreenReader.AddComponentDataNeededEventHandler
 0001:00006364       VA508AccessibilityRouter.TMasterScreenReader.Create
 0001:00006488       VA508AccessibilityRouter.TMasterScreenReader.DecodeBehavior
 0001:00006594       VA508AccessibilityRouter.TMasterScreenReader.Destroy
 0001:00006710       VA508AccessibilityRouter.TMasterScreenReader.EncodeBehavior
 0001:000067BC       VA508AccessibilityRouter.TMasterScreenReader.HandleSRException
 0001:00006824       VA508AccessibilityRouter.TMasterScreenReader.ProcessCustomKeyCommand
 0001:00006868       VA508AccessibilityRouter.TMasterScreenReader.RegisterClassAsMSAA
 0001:000068D0       VA508AccessibilityRouter.TMasterScreenReader.RegisterCustomBehavior
 0001:00006A04       VA508AccessibilityRouter.TMasterScreenReader.RegisterCustomClassBehavior
 0001:00006D28       VA508AccessibilityRouter.TMasterScreenReader.RegisterCustomData
 0001:00006FFC       VA508AccessibilityRouter.TMasterScreenReader.RegisterCustomKeyMapping
 0001:000070EC       VA508AccessibilityRouter.TMasterScreenReader.RegisterDictionaryChange
 0001:00007154       VA508AccessibilityRouter.TMasterScreenReader.RegistrationAllowed
 0001:00007184       VA508AccessibilityRouter.TMasterScreenReader.RemoveComponentDataNeededEventHandler
 0001:000071A0       VA508AccessibilityRouter.TMasterScreenReader.Speak
 0001:00007384       VA508AccessibilityRouter.TNullScreenReader.AddComponentDataNeededEventHandler
 0001:00007390       VA508AccessibilityRouter.TNullScreenReader.RegisterClassAsMSAA
 0001:000073D4       VA508AccessibilityRouter.TNullScreenReader.RegisterCustomClassBehavior
 0001:00007428       VA508AccessibilityRouter.TNullScreenReader.RegisterCustomKeyMapping
 0001:00007490       VA508AccessibilityRouter.TNullScreenReader.RegisterDictionaryChange
 0001:000074E4       VA508AccessibilityRouter.TNullScreenReader.RemoveComponentDataNeededEventHandler
 0001:000074F0       VA508AccessibilityRouter.TNullScreenReader.Speak
 0001:00005374       VA508AccessibilityRouter.TVA508ScreenReader.RegisterCustomKeyMapping
 0001:0000536C       VA508AccessibilityRouter.TVA508ScreenReader.RegisterDictionaryChange
 0001:00005364       VA508AccessibilityRouter.TVA508ScreenReader.Speak
 0003:000002D0       VA508AccessibilityRouter.uNonDialogClassNames
 0003:000002DC       VA508AccessibilityRouter.uPostScreenReaderActivationTimer
 0003:000002DB       VA508AccessibilityRouter.uScreenReaderSystemActive
 0002:00000404       VA508AccessibilityRouter.VA508AccessibilityRouter
 0001:00005B90       VA508AccessibilityRouter.VA508RouterInitProc
 0004:00000058       VA508Classes..5
 0001:00009A5C       VA508Classes..EVA508AccessibilityException
 0001:000096E8       VA508Classes..TFormData
 0001:00009BE8       VA508Classes..TParentChildFormTracker
 0001:0000A078       VA508Classes..TVA508Parser
 0001:0000A3D8       VA508Classes.EnsureManager
 0001:0000BDB0       VA508Classes.Finalization
 0001:0000A354       VA508Classes.HasAnotherAccessibilityManager
 0001:0000BA24       VA508Classes.IgnoreToken
 0001:0000BA60       VA508Classes.InvalidSection
 0001:0000ABE8       VA508Classes.TFormData.HasManager
 0001:0000AC04       VA508Classes.TFormData.HasParent
 0001:0000AC20       VA508Classes.TFormData.SetFormClassName
 0001:0000AC88       VA508Classes.TParentChildFormTracker.AddForm
 0001:0000AD64       VA508Classes.TParentChildFormTracker.AddLink
 0001:0000ADE8       VA508Classes.TParentChildFormTracker.Clear
 0001:0000AE00       VA508Classes.TParentChildFormTracker.Create
 0001:0000AE4C       VA508Classes.TParentChildFormTracker.Destroy
 0001:0000AE88       VA508Classes.TParentChildFormTracker.FindForm
 0001:0000AF34       VA508Classes.TParentChildFormTracker.FormCount
 0001:0000AF50       VA508Classes.TParentChildFormTracker.GetFormData
 0001:0000AF74       VA508Classes.TParentChildFormTracker.ParentChildErrorDescription
 0001:0000B704       VA508Classes.TParentChildFormTracker.ParentChildErrorStatus
 0001:0000B830       VA508Classes.TVA508Parser.GetParentClassName
 0001:0000B9EC       VA508Classes.TVA508Parser.LastLineRead
 0001:0000BA08       VA508Classes.TVA508Parser.LastPosition
 0001:0000BB38       VA508Classes.TVA508Parser.ParseToken
 0002:00000434       VA508Classes.VA508Classes
 0001:0000A574       VA508Classes.VA508ComponentCreationCheck
 0001:0000A920       VA508Classes.VA508ComponentDestructionCheck
 0004:0000005C       VA508DelphiCompatibility..2
 0001:0000C080       VA508DelphiCompatibility..TCheckBox508Manager
 0001:0000C2B0       VA508DelphiCompatibility..TCheckListBox508Manager
 0001:0000C830       VA508DelphiCompatibility..TCustomGrid508Manager
 0001:0000C6AC       VA508DelphiCompatibility..TVA508ComboManager
 0001:0000C52C       VA508DelphiCompatibility..TVA508EditManager
 0001:0000BE50       VA508DelphiCompatibility..TVA508StaticTextManager
 0001:0000CAA8       VA508DelphiCompatibility.Append
 0001:0000CB4C       VA508DelphiCompatibility.AppendHeader
 0001:0000CF08       VA508DelphiCompatibility.CustomComboAlternateHandle
 0001:0000DB28       VA508DelphiCompatibility.Finalization
 0001:0000CF24       VA508DelphiCompatibility.GetCheckBoxComponentName
 0001:0000CFB0       VA508DelphiCompatibility.GetCheckBoxInstructionMessage
 0001:0000D078       VA508DelphiCompatibility.GetCheckBoxStateText
 0001:0000CBD4       VA508DelphiCompatibility.ListViewIndexQueryProc
 0001:0000CDC0       VA508DelphiCompatibility.RegisterStandardDelphiComponents
 0001:0000D13C       VA508DelphiCompatibility.TCheckBox508Manager.Create
 0001:0000D190       VA508DelphiCompatibility.TCheckBox508Manager.GetComponentName
 0001:0000D1B4       VA508DelphiCompatibility.TCheckBox508Manager.GetInstructions
 0001:0000D1DC       VA508DelphiCompatibility.TCheckBox508Manager.GetState
 0001:0000D200       VA508DelphiCompatibility.TCheckListBox508Manager.Create
 0001:0000D254       VA508DelphiCompatibility.TCheckListBox508Manager.GetComponentName
 0001:0000D354       VA508DelphiCompatibility.TCheckListBox508Manager.GetIndex
 0001:0000D3AC       VA508DelphiCompatibility.TCheckListBox508Manager.GetItem
 0001:0000D308       VA508DelphiCompatibility.TCheckListBox508Manager.GetItemInstructions
 0001:0000D3F0       VA508DelphiCompatibility.TCheckListBox508Manager.GetState
 0001:0000D43C       VA508DelphiCompatibility.TCustomGrid508Manager.Create
 0001:0000D490       VA508DelphiCompatibility.TCustomGrid508Manager.GetComponentName
 0001:0000D4CC       VA508DelphiCompatibility.TCustomGrid508Manager.GetInstructions
 0001:0000D5B0       VA508DelphiCompatibility.TCustomGrid508Manager.GetItem
 0001:0000D614       VA508DelphiCompatibility.TCustomGrid508Manager.GetValue
 0001:0000DAB4       VA508DelphiCompatibility.TVA508ComboManager.Create
 0001:0000DB08       VA508DelphiCompatibility.TVA508ComboManager.GetValue
 0001:0000DA40       VA508DelphiCompatibility.TVA508EditManager.Create
 0001:0000DA94       VA508DelphiCompatibility.TVA508EditManager.GetValue
 0001:0000D8D4       VA508DelphiCompatibility.TVA508StaticTextManager.Create
 0001:0000D928       VA508DelphiCompatibility.TVA508StaticTextManager.GetCaption
 0001:0000D958       VA508DelphiCompatibility.TVA508StaticTextManager.GetComponentName
 0001:0000D990       VA508DelphiCompatibility.TVA508StaticTextManager.GetValue
 0002:000004C4       VA508DelphiCompatibility.VA508DelphiCompatibility
 0004:00000054       VA508ImageListLabeler..6
 0001:00007ABC       VA508ImageListLabeler..TVA508ImageListComponent
 0001:00007CAC       VA508ImageListLabeler..TVA508ImageListComponents
 0001:0000757C       VA508ImageListLabeler..TVA508ImageListLabel
 0001:00007F14       VA508ImageListLabeler..TVA508ImageListLabeler
 0001:000077E8       VA508ImageListLabeler..TVA508ImageListLabels
 0001:000096E0       VA508ImageListLabeler.Finalization
 0001:0000827C       VA508ImageListLabeler.Register
 0001:00009294       VA508ImageListLabeler.TVA508ImageListComponent.Assign
 0001:000092D8       VA508ImageListLabeler.TVA508ImageListComponent.ComponentNotifyEvent
 0001:0000930C       VA508ImageListLabeler.TVA508ImageListComponent.Destroy
 0001:0000935C       VA508ImageListLabeler.TVA508ImageListComponent.GetDisplayName
 0001:0000941C       VA508ImageListLabeler.TVA508ImageListComponent.ImageListTypes
 0001:00009528       VA508ImageListLabeler.TVA508ImageListComponent.Labeler
 0001:00009554       VA508ImageListLabeler.TVA508ImageListComponent.SetComponent
 0001:00009154       VA508ImageListLabeler.TVA508ImageListComponents.Add
 0001:00009170       VA508ImageListLabeler.TVA508ImageListComponents.Create
 0001:000091C4       VA508ImageListLabeler.TVA508ImageListComponents.Destroy
 0001:00009200       VA508ImageListLabeler.TVA508ImageListComponents.GetItem
 0001:00009224       VA508ImageListLabeler.TVA508ImageListComponents.GetOwner
 0001:00009240       VA508ImageListLabeler.TVA508ImageListComponents.Notify
 0001:00009270       VA508ImageListLabeler.TVA508ImageListComponents.SetItem
 0001:00008EF8       VA508ImageListLabeler.TVA508ImageListLabel.Assign
 0001:00008F4C       VA508ImageListLabeler.TVA508ImageListLabel.Changed
 0001:00008F64       VA508ImageListLabeler.TVA508ImageListLabel.Create
 0001:00008FC0       VA508ImageListLabeler.TVA508ImageListLabel.Destroy
 0001:00008FF4       VA508ImageListLabeler.TVA508ImageListLabel.Labeler
 0001:00009020       VA508ImageListLabeler.TVA508ImageListLabel.Refresh
 0001:00009038       VA508ImageListLabeler.TVA508ImageListLabel.SetCaption
 0001:0000907C       VA508ImageListLabeler.TVA508ImageListLabel.SetImageIndex
 0001:00009124       VA508ImageListLabeler.TVA508ImageListLabel.SetOverlayIndex
 0001:000082B8       VA508ImageListLabeler.TVA508ImageListLabeler.ComponentImageListChanged
 0001:000082CC       VA508ImageListLabeler.TVA508ImageListLabeler.Create
 0001:0000838C       VA508ImageListLabeler.TVA508ImageListLabeler.Destroy
 0001:00008414       VA508ImageListLabeler.TVA508ImageListLabeler.ImageIndexQuery
 0001:000084F4       VA508ImageListLabeler.TVA508ImageListLabeler.ImageListChange
 0001:000085A0       VA508ImageListLabeler.TVA508ImageListLabeler.ItemChanged
 0001:000085D4       VA508ImageListLabeler.TVA508ImageListLabeler.Loaded
 0001:00008790       VA508ImageListLabeler.TVA508ImageListLabeler.Notification
 0001:00008604       VA508ImageListLabeler.TVA508ImageListLabeler.SaveChanges
 0001:000087CC       VA508ImageListLabeler.TVA508ImageListLabeler.SetImageList
 0001:000089A4       VA508ImageListLabeler.TVA508ImageListLabeler.SetRemoteLabeler
 0001:000089E4       VA508ImageListLabeler.TVA508ImageListLabels.Add
 0001:00008A00       VA508ImageListLabeler.TVA508ImageListLabels.Create
 0001:00008B4C       VA508ImageListLabeler.TVA508ImageListLabels.Destroy
 0001:00008BA8       VA508ImageListLabeler.TVA508ImageListLabels.GetAttr
 0001:00008BD0       VA508ImageListLabeler.TVA508ImageListLabels.GetAttrCount
 0001:00008BF0       VA508ImageListLabeler.TVA508ImageListLabels.GetImageData
 0001:00008C90       VA508ImageListLabeler.TVA508ImageListLabels.GetItem
 0001:00008CB4       VA508ImageListLabeler.TVA508ImageListLabels.GetItemAttr
 0001:00008D94       VA508ImageListLabeler.TVA508ImageListLabels.GetOverlayData
 0001:00008E40       VA508ImageListLabeler.TVA508ImageListLabels.GetOwner
 0001:00008E5C       VA508ImageListLabeler.TVA508ImageListLabels.Notify
 0001:00008E88       VA508ImageListLabeler.TVA508ImageListLabels.ResetData
 0001:00008EB0       VA508ImageListLabeler.TVA508ImageListLabels.SetItem
 0001:00008ED4       VA508ImageListLabeler.TVA508ImageListLabels.Update
 0002:0000042C       VA508ImageListLabeler.VA508ImageListLabeler
 0004:000000A0       VA508ImageListLabelerPE..7
 0001:0001F510       VA508ImageListLabelerPE..TfrmImageListEditor
 0001:0001FA3C       VA508ImageListLabelerPE..TVA508ImageListComponentEditor
 0001:0001FC10       VA508ImageListLabelerPE..TVA508ImageListComponentProperty
 0001:0001F8B8       VA508ImageListLabelerPE..TVA508ImageListItemsProperty
 0001:0001FE08       VA508ImageListLabelerPE..TVA508LabelerImageListProperty
 0001:0001FF60       VA508ImageListLabelerPE..TVA508LabelerRemoteLabelerProperty
 0001:00020DAC       VA508ImageListLabelerPE.Finalization
 0001:000200E4       VA508ImageListLabelerPE.Register
 0001:000201EC       VA508ImageListLabelerPE.TfrmImageListEditor.Create
 0001:000202D8       VA508ImageListLabelerPE.TfrmImageListEditor.Destroy
 0001:0002048C       VA508ImageListLabelerPE.TfrmImageListEditor.GetImageList
 0001:000204E8       VA508ImageListLabelerPE.TfrmImageListEditor.GetSize
 0001:00020340       VA508ImageListLabelerPE.TfrmImageListEditor.ImageDataChanged
 0001:00020360       VA508ImageListLabelerPE.TfrmImageListEditor.ItemChange
 0001:000203B8       VA508ImageListLabelerPE.TfrmImageListEditor.IterateItems
 0001:00020548       VA508ImageListLabelerPE.TfrmImageListEditor.RedrawImages
 0001:000207D8       VA508ImageListLabelerPE.TfrmImageListEditor.UpdateImages
 0001:00020918       VA508ImageListLabelerPE.TVA508ImageListComponentEditor.Edit
 0001:000209AC       VA508ImageListLabelerPE.TVA508ImageListComponentEditor.ExecuteVerb
 0001:000209D8       VA508ImageListLabelerPE.TVA508ImageListComponentEditor.GetVerb
 0001:00020A50       VA508ImageListLabelerPE.TVA508ImageListComponentEditor.GetVerbCount
 0001:00020A68       VA508ImageListLabelerPE.TVA508ImageListComponentProperty.FilterValues
 0001:00020B4C       VA508ImageListLabelerPE.TVA508ImageListComponentProperty.GetValue
 0001:00020C00       VA508ImageListLabelerPE.TVA508ImageListComponentProperty.GetValues
 0001:00020C40       VA508ImageListLabelerPE.TVA508ImageListComponentProperty.SetValue
 0001:0002026C       VA508ImageListLabelerPE.TVA508ImageListItemsProperty.GetAttributes
 0001:000202C0       VA508ImageListLabelerPE.TVA508ImageListItemsProperty.GetEditorClass
 0001:00020CD8       VA508ImageListLabelerPE.TVA508LabelerImageListProperty.GetAttributes
 0001:00020D24       VA508ImageListLabelerPE.TVA508LabelerRemoteLabelerProperty.FilterValues
 0001:00020D6C       VA508ImageListLabelerPE.TVA508LabelerRemoteLabelerProperty.GetValues
 0002:000005A8       VA508ImageListLabelerPE.VA508ImageListLabelerPE
 0004:00000034       VA508MSAASupport..1
 0001:000021D4       VA508MSAASupport..TImageEventData
 0001:000022B0       VA508MSAASupport..TListProcData
 0001:00002574       VA508MSAASupport..TMSAAServer
 0001:0000236C       VA508MSAASupport..TProcData
 0003:00000294       VA508MSAASupport.AccPropServices
 0003:00000298       VA508MSAASupport.AccServicesCount
 0001:000035D8       VA508MSAASupport.Append
 0001:00002B90       VA508MSAASupport.Cleanup
 0001:00002B68       VA508MSAASupport.DecAccServices
 0001:00003C6C       VA508MSAASupport.DoListComponent
 0001:000038D8       VA508MSAASupport.DoListView
 0001:00003CEC       VA508MSAASupport.DoNormalComponent
 0001:00003760       VA508MSAASupport.DoTreeView
 0003:00000290       VA508MSAASupport.Events
 0001:00004248       VA508MSAASupport.Finalization
 0001:00002BB4       VA508MSAASupport.FindServer
 0001:000036B4       VA508MSAASupport.GetImageLabelText
 0001:00003D68       VA508MSAASupport.HasProperty
 0001:00002ACC       VA508MSAASupport.IncAccServices
 0004:00000038       VA508MSAASupport.NamePropIDs
 0001:00003D90       VA508MSAASupport.NoProperty
 0001:00002A18       VA508MSAASupport.NotifyEvent
 0001:00002C80       VA508MSAASupport.RegisterComponentImageListQueryEvent
 0001:00002FEC       VA508MSAASupport.RegisterMSAAComponentListQueryProc
 0001:00002E40       VA508MSAASupport.RegisterMSAAComponentQueryProc
 0001:00003198       VA508MSAASupport.TMSAAServer.AddImageEvent
 0001:00003214       VA508MSAASupport.TMSAAServer.AddListProc
 0001:00003268       VA508MSAASupport.TMSAAServer.AddProc
 0001:000032BC       VA508MSAASupport.TMSAAServer.AssignServerType
 0001:000032EC       VA508MSAASupport.TMSAAServer.Attach
 0001:00003354       VA508MSAASupport.TMSAAServer.Create
 0001:000033CC       VA508MSAASupport.TMSAAServer.Destroy
 0001:00003418       VA508MSAASupport.TMSAAServer.Detatch
 0001:0000349C       VA508MSAASupport.TMSAAServer.EventCount
 0001:000035BC       VA508MSAASupport.TMSAAServer.GetComponent
 0001:00003DAC       VA508MSAASupport.TMSAAServer.GetPropValue
 0001:00003F74       VA508MSAASupport.TMSAAServer.Hook
 0001:000034B8       VA508MSAASupport.TMSAAServer.ImageEventIndex
 0001:00003540       VA508MSAASupport.TMSAAServer.ListProcIndex
 0001:0000416C       VA508MSAASupport.TMSAAServer.MSAAWindowProc
 0001:000041B0       VA508MSAASupport.TMSAAServer.ProcIndex
 0001:00003FA8       VA508MSAASupport.TMSAAServer.RemoveImageEvent
 0001:00003FEC       VA508MSAASupport.TMSAAServer.RemoveListProc
 0001:00004028       VA508MSAASupport.TMSAAServer.RemoveProc
 0001:0000411C       VA508MSAASupport.TMSAAServer.UnassignServerType
 0001:0000414C       VA508MSAASupport.TMSAAServer.UnHook
 0001:00004064       VA508MSAASupport.TMSAAServer.ValidateServerType
 0004:00000048       VA508MSAASupport.uNotifier
 0001:00002D74       VA508MSAASupport.UnregisterComponentImageListQueryEvent
 0001:000030D8       VA508MSAASupport.UnregisterMSAAComponentListQueryProc
 0001:00002F2C       VA508MSAASupport.UnregisterMSAAComponentQueryProc
 0003:0000028C       VA508MSAASupport.uShutDown
 0003:00000284       VA508MSAASupport.VA508ImageListLabelerClasses
 0002:000003E0       VA508MSAASupport.VA508MSAASupport
 0004:0000004C       VA508ScreenReaderDLLLinker..1
 0001:00004B18       VA508ScreenReaderDLLLinker.CheckFile
 0001:000047B8       VA508ScreenReaderDLLLinker.CheckForJaws
 0001:0000490C       VA508ScreenReaderDLLLinker.CheckProcs
 0001:000048AC       VA508ScreenReaderDLLLinker.CheckRunning
 0001:00004530       VA508ScreenReaderDLLLinker.ClearProcPointers
 0001:000045B8       VA508ScreenReaderDLLLinker.CloseScreenReaderLink
 0001:000044C0       VA508ScreenReaderDLLLinker.ComponentData
 0001:00004518       VA508ScreenReaderDLLLinker.ConfigChangePending
 0003:000002C4       VA508ScreenReaderDLLLinker.DLLHandle
 0003:000002B9       VA508ScreenReaderDLLLinker.DoInitialize
 0003:000002B8       VA508ScreenReaderDLLLinker.ExecuteFind
 0001:00004F78       VA508ScreenReaderDLLLinker.Finalization
 0001:000044FC       VA508ScreenReaderDLLLinker.FindJaws
 0001:00004DF8       VA508ScreenReaderDLLLinker.FindScreenReaders
 0001:00004484       VA508ScreenReaderDLLLinker.Initialize
 0003:000002BA       VA508ScreenReaderDLLLinker.InitializeResult
 0001:00004570       VA508ScreenReaderDLLLinker.InitializeScreenReaderLink
 0001:000044E0       VA508ScreenReaderDLLLinker.IsRunning
 0001:00004EDC       VA508ScreenReaderDLLLinker.IsScreenReaderSupported
 0001:000045E4       VA508ScreenReaderDLLLinker.LoadScreenReader
 0001:000044B0       VA508ScreenReaderDLLLinker.RegisterCustomBehavior
 0001:00004C0C       VA508ScreenReaderDLLLinker.ScanScreenReaders
 0001:00004EBC       VA508ScreenReaderDLLLinker.ScreenReaderDLLsExist
 0001:000044A0       VA508ScreenReaderDLLLinker.ShutDown
 0001:000044D0       VA508ScreenReaderDLLLinker.SpeakText
 0003:000002A4       VA508ScreenReaderDLLLinker.SRCheckJaws
 0003:000002AC       VA508ScreenReaderDLLLinker.SRComponentData
 0003:000002B0       VA508ScreenReaderDLLLinker.SRConfigChangePending
 0003:000002BC       VA508ScreenReaderDLLLinker.SRInitialize
 0003:000002A0       VA508ScreenReaderDLLLinker.SRIsRunning
 0003:000002A8       VA508ScreenReaderDLLLinker.SRRegisterCustomBehavior
 0003:000002C0       VA508ScreenReaderDLLLinker.SRShutDown
 0003:0000029C       VA508ScreenReaderDLLLinker.SRSpeakText
 0002:000003F8       VA508ScreenReaderDLLLinker.VA508ScreenReaderDLLLinker
 0003:000002B4       VA508ScreenReaderDLLLinker.ValidSRFiles
 0001:00001A64       VAClasses.TVABaseMethodList.GetMethod
 0001:00001A6C       VAClasses.TVAMethodList.Add
 0001:00001A74       VAClasses.TVAMethodList.Count
 0001:00001A7C       VAClasses.TVAMethodList.Create
 0001:00001A84       VAClasses.TVAMethodList.Remove
 0001:00001A8C       VAClasses.TVANotificationEventComponent.NotifyCreate
 0001:00001AD4       VAUtils.AppendBackSlash
 0001:00001AC4       VAUtils.FastHexToByte
 0001:00001ACC       VAUtils.FastHexToInt
 0001:00001ABC       VAUtils.FastIntToHex
 0001:00001AF4       VAUtils.Finalization
 0001:00001A9C       VAUtils.FreeAndNilTStringsAndObjects
 0001:00001AE4       VAUtils.GetAlternateProgramFilesPath
 0001:00001AB4       VAUtils.GetFileWithShortenedPath
 0001:00001ADC       VAUtils.GetProgramFilesPath
 0001:00001A94       VAUtils.Piece
 0001:00001AA4       VAUtils.ScreenReaderActive
 0001:00001AAC       VAUtils.ScreenReaderSupportEnabled
 0002:000003B8       VAUtils.VAUtils
 0001:00001AEC       VAUtils.VersionStringSplit
 0001:00001084       Vcl.ActnList.Finalization
 0002:00000100       Vcl.ActnList.Vcl.ActnList
 0001:00001874       Vcl.ActnMan.Finalization
 0002:00000358       Vcl.ActnMan.Vcl.ActnMan
 0001:0000186C       Vcl.ActnMenus.Finalization
 0002:00000350       Vcl.ActnMenus.Vcl.ActnMenus
 0001:00019064       Vcl.AppEvnts.Finalization
 0002:00000528       Vcl.AppEvnts.Vcl.AppEvnts
 0001:0001905C       Vcl.AxCtrls.Finalization
 0002:00000520       Vcl.AxCtrls.Vcl.AxCtrls
 0001:0000184C       Vcl.Buttons.Finalization
 0002:00000328       Vcl.Buttons.TBitBtn.Create@
 0001:00001844       Vcl.Buttons.TBitBtn.Destroy@
 0002:00000330       Vcl.Buttons.Vcl.Buttons
 0001:0000182C       Vcl.CaptionedDockTree.Finalization
 0002:00000310       Vcl.CaptionedDockTree.Vcl.CaptionedDockTree
 0002:0000043C       Vcl.CheckLst.TCheckListBox.Create@
 0001:0000BDB8       Vcl.CheckLst.TCheckListBox.Destroy@
 0001:0000BDC0       Vcl.CheckLst.TCheckListBox.GetChecked
 0001:0000BDC8       Vcl.CheckLst.TCheckListBox.GetState
 0001:00001184       Vcl.Clipbrd.Finalization
 0002:000001B8       Vcl.Clipbrd.Vcl.Clipbrd
 0001:000012AC       Vcl.ComCtrls.Finalization
 0002:00000268       Vcl.ComCtrls.TComboBoxEx.Create@
 0001:00001294       Vcl.ComCtrls.TComboBoxEx.Destroy@
 0002:00000248       Vcl.ComCtrls.TCoolBar.Create@
 0001:00001274       Vcl.ComCtrls.TCoolBar.Destroy@
 0002:00000260       Vcl.ComCtrls.TCustomComboBoxEx.Create@
 0001:0000128C       Vcl.ComCtrls.TCustomComboBoxEx.Destroy@
 0002:000001D8       Vcl.ComCtrls.TCustomHeaderControl.Create@
 0001:000011A4       Vcl.ComCtrls.TCustomHeaderControl.Destroy@
 0002:00000220       Vcl.ComCtrls.TCustomHotKey.Create@
 0001:000011FC       Vcl.ComCtrls.TCustomHotKey.Destroy@
 0002:00000230       Vcl.ComCtrls.TCustomListView.Create@
 0001:0000124C       Vcl.ComCtrls.TCustomListView.Destroy@
 0001:00001254       Vcl.ComCtrls.TCustomListView.SetSmallImages
 0001:0000125C       Vcl.ComCtrls.TCustomListView.SetStateImages
 0002:00000200       Vcl.ComCtrls.TCustomRichEdit.Create@
 0001:000011DC       Vcl.ComCtrls.TCustomRichEdit.Destroy@
 0002:000001D0       Vcl.ComCtrls.TCustomStatusBar.Create@
 0001:0000119C       Vcl.ComCtrls.TCustomStatusBar.Destroy@
 0002:000001C0       Vcl.ComCtrls.TCustomTabControl.Create@
 0001:0000118C       Vcl.ComCtrls.TCustomTabControl.Destroy@
 0002:000001E0       Vcl.ComCtrls.TCustomTreeView.Create@
 0001:000011BC       Vcl.ComCtrls.TCustomTreeView.Destroy@
 0002:00000210       Vcl.ComCtrls.TCustomUpDown.Create@
 0001:000011EC       Vcl.ComCtrls.TCustomUpDown.Destroy@
 0002:00000250       Vcl.ComCtrls.TDateTimePicker.Create@
 0001:0000127C       Vcl.ComCtrls.TDateTimePicker.Destroy@
 0002:00000278       Vcl.ComCtrls.THeaderControl.Create@
 0001:000012A4       Vcl.ComCtrls.THeaderControl.Destroy@
 0002:00000228       Vcl.ComCtrls.THotKey.Create@
 0001:00001204       Vcl.ComCtrls.THotKey.Destroy@
 0001:0000120C       Vcl.ComCtrls.TListColumn.GetWidth
 0001:00001214       Vcl.ComCtrls.TListColumn.SetWidth
 0001:0000121C       Vcl.ComCtrls.TListColumns.GetItem
 0001:00001224       Vcl.ComCtrls.TListItem.SetImage
 0001:0000123C       Vcl.ComCtrls.TListItems.BeginUpdate
 0001:00001244       Vcl.ComCtrls.TListItems.EndUpdate
 0001:0000122C       Vcl.ComCtrls.TListItems.GetCount
 0001:00001234       Vcl.ComCtrls.TListItems.GetItem
 0002:00000238       Vcl.ComCtrls.TListView.Create@
 0001:00001264       Vcl.ComCtrls.TListView.Destroy@
 0002:00000258       Vcl.ComCtrls.TPageScroller.Create@
 0001:00001284       Vcl.ComCtrls.TPageScroller.Destroy@
 0002:000001F8       Vcl.ComCtrls.TProgressBar.Create@
 0001:000011D4       Vcl.ComCtrls.TProgressBar.Destroy@
 0002:00000208       Vcl.ComCtrls.TRichEdit.Create@
 0001:000011E4       Vcl.ComCtrls.TRichEdit.Destroy@
 0002:00000270       Vcl.ComCtrls.TStatusBar.Create@
 0001:0000129C       Vcl.ComCtrls.TStatusBar.Destroy@
 0002:000001C8       Vcl.ComCtrls.TTabControl.Create@
 0001:00001194       Vcl.ComCtrls.TTabControl.Destroy@
 0002:00000240       Vcl.ComCtrls.TToolBar.Create@
 0001:0000126C       Vcl.ComCtrls.TToolBar.Destroy@
 0002:000001F0       Vcl.ComCtrls.TTrackBar.Create@
 0001:000011CC       Vcl.ComCtrls.TTrackBar.Destroy@
 0001:000011AC       Vcl.ComCtrls.TTreeNode.GetSelected
 0001:000011B4       Vcl.ComCtrls.TTreeNodes.GetNode
 0002:000001E8       Vcl.ComCtrls.TTreeView.Create@
 0001:000011C4       Vcl.ComCtrls.TTreeView.Destroy@
 0002:00000218       Vcl.ComCtrls.TUpDown.Create@
 0001:000011F4       Vcl.ComCtrls.TUpDown.Destroy@
 0002:00000280       Vcl.ComCtrls.Vcl.ComCtrls
 0001:0000180C       Vcl.Controls.Finalization
 0001:0000167C       Vcl.Controls.TControl.AssignTo
 0001:00001634       Vcl.Controls.TControl.CanAutoSize
 0001:0000163C       Vcl.Controls.TControl.CanResize
 0001:00001644       Vcl.Controls.TControl.ConstrainedResize
 0001:0000166C       Vcl.Controls.TControl.CreateTouchManager
 0001:0000165C       Vcl.Controls.TControl.DefaultHandler
 0001:00001664       Vcl.Controls.TControl.DefineProperties
 0001:00001624       Vcl.Controls.TControl.DoGesture
 0001:0000162C       Vcl.Controls.TControl.DoGetGestureOptions
 0001:0000156C       Vcl.Controls.TControl.GetAction
 0001:000015AC       Vcl.Controls.TControl.GetBoundsRect
 0001:000015BC       Vcl.Controls.TControl.GetClientOrigin
 0001:000015B4       Vcl.Controls.TControl.GetClientRect
 0001:00001604       Vcl.Controls.TControl.GetDeviceContext
 0001:0000155C       Vcl.Controls.TControl.GetDragImages
 0001:00001564       Vcl.Controls.TControl.GetEnabled
 0001:00001684       Vcl.Controls.TControl.GetFloating
 0001:0000168C       Vcl.Controls.TControl.GetFloatingDockSiteClass
 0001:000015E4       Vcl.Controls.TControl.GetText
 0001:00001694       Vcl.Controls.TControl.InitiateAction
 0001:0000160C       Vcl.Controls.TControl.Invalidate
 0001:00001674       Vcl.Controls.TControl.Loaded
 0001:0000164C       Vcl.Controls.TControl.Perform
 0001:00001584       Vcl.Controls.TControl.ReadState
 0001:0000161C       Vcl.Controls.TControl.Repaint
 0001:0000157C       Vcl.Controls.TControl.RequestAlign
 0001:0000158C       Vcl.Controls.TControl.SetAlign
 0001:000015C4       Vcl.Controls.TControl.SetAutoSize
 0001:000015F4       Vcl.Controls.TControl.SetBiDiMode
 0001:00001594       Vcl.Controls.TControl.SetBounds
 0001:00001574       Vcl.Controls.TControl.SetDragMode
 0001:000015DC       Vcl.Controls.TControl.SetEnabled
 0001:000015A4       Vcl.Controls.TControl.SetHeight
 0001:000015CC       Vcl.Controls.TControl.SetName
 0001:000015D4       Vcl.Controls.TControl.SetParent
 0001:000015FC       Vcl.Controls.TControl.SetParentBiDiMode
 0001:000015EC       Vcl.Controls.TControl.SetText
 0001:0000159C       Vcl.Controls.TControl.SetWidth
 0001:00001614       Vcl.Controls.TControl.Update
 0001:00001654       Vcl.Controls.TControl.WndProc
 0001:000017FC       Vcl.Controls.TCustomControl.Destroy
 0001:00001804       Vcl.Controls.TCustomControl.PaintWindow
 0001:000017F4       Vcl.Controls.TGraphicControl.Destroy
 0001:000016A4       Vcl.Controls.TWinControl.AlignControls
 0001:000017BC       Vcl.Controls.TWinControl.AssignTo
 0001:000017C4       Vcl.Controls.TWinControl.CanAutoSize
 0001:000017A4       Vcl.Controls.TWinControl.CanResize
 0001:0000173C       Vcl.Controls.TWinControl.CMFontChanged
 0001:000017AC       Vcl.Controls.TWinControl.ConstrainedResize
 0001:000016EC       Vcl.Controls.TWinControl.CreateHandle
 0001:000016CC       Vcl.Controls.TWinControl.CreateWindowHandle
 0001:000016C4       Vcl.Controls.TWinControl.CreateWnd
 0001:000016F4       Vcl.Controls.TWinControl.CustomAlignInsertBefore
 0001:000016FC       Vcl.Controls.TWinControl.CustomAlignPosition
 0001:0000171C       Vcl.Controls.TWinControl.DefaultHandler
 0001:000016D4       Vcl.Controls.TWinControl.DefineProperties
 0001:00001704       Vcl.Controls.TWinControl.DestroyHandle
 0001:000016E4       Vcl.Controls.TWinControl.DestroyWindowHandle
 0001:000016DC       Vcl.Controls.TWinControl.DestroyWnd
 0001:000017D4       Vcl.Controls.TWinControl.DockReplaceDockClient
 0001:0000172C       Vcl.Controls.TWinControl.DoEnter
 0001:00001734       Vcl.Controls.TWinControl.DoExit
 0001:0000178C       Vcl.Controls.TWinControl.GetClientOrigin
 0001:00001794       Vcl.Controls.TWinControl.GetClientRect
 0001:000016AC       Vcl.Controls.TWinControl.GetControl
 0001:000016B4       Vcl.Controls.TWinControl.GetControlCount
 0001:00001784       Vcl.Controls.TWinControl.GetControlExtents
 0001:00001754       Vcl.Controls.TWinControl.GetDeviceContext
 0001:0000177C       Vcl.Controls.TWinControl.GetHandle
 0001:0000175C       Vcl.Controls.TWinControl.Invalidate
 0001:000016BC       Vcl.Controls.TWinControl.Notification
 0001:0000169C       Vcl.Controls.TWinControl.ReadState
 0001:0000176C       Vcl.Controls.TWinControl.Repaint
 0001:00001724       Vcl.Controls.TWinControl.RequestAlign
 0001:00001744       Vcl.Controls.TWinControl.SetBounds
 0001:00001774       Vcl.Controls.TWinControl.SetFocus
 0001:000017EC       Vcl.Controls.TWinControl.SetParent
 0001:000017CC       Vcl.Controls.TWinControl.SetParentBackground
 0001:0000170C       Vcl.Controls.TWinControl.SetParentDoubleBuffered
 0001:0000179C       Vcl.Controls.TWinControl.SetTabStop
 0001:0000174C       Vcl.Controls.TWinControl.ShowControl
 0001:00001764       Vcl.Controls.TWinControl.Update
 0001:000017E4       Vcl.Controls.TWinControl.UpdateControlOriginalParentSize
 0001:000017B4       Vcl.Controls.TWinControl.UpdateStyleElements
 0001:000017DC       Vcl.Controls.TWinControl.UpdateTIPStatus
 0001:00001714       Vcl.Controls.TWinControl.WndProc
 0002:00000300       Vcl.Controls.Vcl.Controls
 0001:0000BE38       Vcl.DBCtrls.Finalization
 0002:0000049C       Vcl.DBCtrls.TCustomDBLookupComboBox.Create@
 0001:0000BE28       Vcl.DBCtrls.TCustomDBLookupComboBox.Destroy@
 0002:000004A4       Vcl.DBCtrls.TDBLookupComboBox.Create@
 0001:0000BE30       Vcl.DBCtrls.TDBLookupComboBox.Destroy@
 0002:00000494       Vcl.DBCtrls.TDBLookupListBox.Create@
 0001:0000BE20       Vcl.DBCtrls.TDBLookupListBox.Destroy@
 0002:0000048C       Vcl.DBCtrls.TDBMemo.Create@
 0001:0000BE18       Vcl.DBCtrls.TDBMemo.Destroy@
 0002:000004AC       Vcl.DBCtrls.Vcl.DBCtrls
 0002:000004B4       Vcl.DBGrids.TCustomDBGrid.Create@
 0001:0000BE40       Vcl.DBGrids.TCustomDBGrid.Destroy@
 0002:000004BC       Vcl.DBGrids.TDBGrid.Create@
 0001:0000BE48       Vcl.DBGrids.TDBGrid.Destroy@
 0001:0000BE08       Vcl.DBLogDlg.Finalization
 0002:0000047C       Vcl.DBLogDlg.Vcl.DBLogDlg
 0001:0000BE10       Vcl.DBPWDlg.Finalization
 0002:00000484       Vcl.DBPWDlg.Vcl.DBPWDlg
 0001:000012BC       Vcl.Dialogs.Finalization
 0001:000012B4       Vcl.Dialogs.MessageDlg
 0002:00000288       Vcl.Dialogs.Vcl.Dialogs
 0001:00001834       Vcl.DockTabSet.Finalization
 0002:00000318       Vcl.DockTabSet.Vcl.DockTabSet
 0001:00001864       Vcl.ExtActns.Finalization
 0002:00000348       Vcl.ExtActns.Vcl.ExtActns
 0001:0000133C       Vcl.ExtCtrls.Finalization
 0002:00000298       Vcl.ExtCtrls.TCategoryPanelGroup.Create@
 0001:00001324       Vcl.ExtCtrls.TCategoryPanelGroup.Destroy@
 0002:00000290       Vcl.ExtCtrls.TCustomCategoryPanelGroup.Create@
 0001:0000131C       Vcl.ExtCtrls.TCustomCategoryPanelGroup.Destroy@
 0002:000002A0       Vcl.ExtCtrls.TCustomLinkLabel.Create@
 0001:0000132C       Vcl.ExtCtrls.TCustomLinkLabel.Destroy@
 0001:00001304       Vcl.ExtCtrls.TCustomPanel.AdjustClientRect
 0001:0000130C       Vcl.ExtCtrls.TCustomPanel.CanAutoSize
 0001:000012F4       Vcl.ExtCtrls.TCustomPanel.CMTextChanged
 0001:000012E4       Vcl.ExtCtrls.TCustomPanel.Create
 0001:000012EC       Vcl.ExtCtrls.TCustomPanel.CreateParams
 0001:00001314       Vcl.ExtCtrls.TCustomPanel.SetParentBackground
 0001:000012FC       Vcl.ExtCtrls.TCustomPanel.UpdateStyleElements
 0002:000002A8       Vcl.ExtCtrls.TLinkLabel.Create@
 0001:00001334       Vcl.ExtCtrls.TLinkLabel.Destroy@
 0001:000012C4       Vcl.ExtCtrls.TTimer.Create
 0001:000012CC       Vcl.ExtCtrls.TTimer.SetEnabled
 0001:000012D4       Vcl.ExtCtrls.TTimer.SetInterval
 0001:000012DC       Vcl.ExtCtrls.TTimer.SetOnTimer
 0002:000002B0       Vcl.ExtCtrls.Vcl.ExtCtrls
 0001:00001854       Vcl.ExtDlgs.Finalization
 0002:00000338       Vcl.ExtDlgs.Vcl.ExtDlgs
 0001:000014F4       Vcl.Forms.Finalization
 0001:000014EC       Vcl.Forms.TApplication.GetExeName
 0001:000014E4       Vcl.Forms.TApplication.ProcessMessages
 0001:00001394       Vcl.Forms.TCustomForm.AfterConstruction
 0001:00001424       Vcl.Forms.TCustomForm.AlignControls
 0001:000013A4       Vcl.Forms.TCustomForm.BeforeDestruction
 0001:0000141C       Vcl.Forms.TCustomForm.ClientWndProc
 0001:0000147C       Vcl.Forms.TCustomForm.Close
 0001:00001484       Vcl.Forms.TCustomForm.CloseQuery
 0001:00001384       Vcl.Forms.TCustomForm.Create
 0002:000002D0       Vcl.Forms.TCustomForm.Create@
 0001:0000139C       Vcl.Forms.TCustomForm.CreateNew
 0001:00001434       Vcl.Forms.TCustomForm.CreateParams
 0001:00001444       Vcl.Forms.TCustomForm.CreateWindowHandle
 0001:0000143C       Vcl.Forms.TCustomForm.CreateWnd
 0001:0000145C       Vcl.Forms.TCustomForm.DefaultHandler
 0001:000013DC       Vcl.Forms.TCustomForm.DefineProperties
 0001:000013AC       Vcl.Forms.TCustomForm.Destroy
 0001:0000138C       Vcl.Forms.TCustomForm.Destroy@
 0001:0000144C       Vcl.Forms.TCustomForm.DestroyHandle
 0001:00001454       Vcl.Forms.TCustomForm.DestroyWindowHandle
 0001:000013B4       Vcl.Forms.TCustomForm.DoCreate
 0001:000013BC       Vcl.Forms.TCustomForm.DoDestroy
 0001:0000142C       Vcl.Forms.TCustomForm.GetCanvas
 0001:000013E4       Vcl.Forms.TCustomForm.GetClientRect
 0001:000013EC       Vcl.Forms.TCustomForm.GetFloating
 0001:000013C4       Vcl.Forms.TCustomForm.Loaded
 0001:000013CC       Vcl.Forms.TCustomForm.Notification
 0001:0000146C       Vcl.Forms.TCustomForm.PaintWindow
 0001:000014B4       Vcl.Forms.TCustomForm.QueryInterface
 0001:000013D4       Vcl.Forms.TCustomForm.ReadState
 0001:000014AC       Vcl.Forms.TCustomForm.RequestAlign
 0001:00001474       Vcl.Forms.TCustomForm.Resizing
 0001:00001494       Vcl.Forms.TCustomForm.SetFocus
 0001:00001464       Vcl.Forms.TCustomForm.SetFocusedControl
 0001:000014BC       Vcl.Forms.TCustomForm.SetLeft
 0001:00001404       Vcl.Forms.TCustomForm.SetParent
 0001:000013F4       Vcl.Forms.TCustomForm.SetParentBiDiMode
 0001:000014C4       Vcl.Forms.TCustomForm.SetTop
 0001:0000148C       Vcl.Forms.TCustomForm.Show
 0001:0000149C       Vcl.Forms.TCustomForm.ShowModal
 0001:000014A4       Vcl.Forms.TCustomForm.UpdateActions
 0001:0000140C       Vcl.Forms.TCustomForm.ValidateRename
 0001:000013FC       Vcl.Forms.TCustomForm.WantChildKey
 0001:00001414       Vcl.Forms.TCustomForm.WndProc
 0002:000002D8       Vcl.Forms.TForm.Create@
 0001:000014CC       Vcl.Forms.TForm.Destroy@
 0001:000014D4       Vcl.Forms.TScreen.GetHeight
 0001:000014DC       Vcl.Forms.TScreen.GetWidth
 0002:000002C8       Vcl.Forms.TScrollBox.Create@
 0001:0000137C       Vcl.Forms.TScrollBox.Destroy@
 0001:00001374       Vcl.Forms.TScrollingWinControl.AdjustClientRect
 0001:00001354       Vcl.Forms.TScrollingWinControl.AutoScrollEnabled
 0001:0000136C       Vcl.Forms.TScrollingWinControl.AutoScrollInView
 0001:0000135C       Vcl.Forms.TScrollingWinControl.DoGesture
 0001:00001364       Vcl.Forms.TScrollingWinControl.DoGetGestureOptions
 0002:000002E0       Vcl.Forms.Vcl.Forms
 0001:0000105C       Vcl.Graphics.Finalization
 0001:0000104C       Vcl.Graphics.TBitmap.Create
 0001:00001054       Vcl.Graphics.TBitmap.GetCanvas
 0001:00001034       Vcl.Graphics.TBrush.SetColor
 0001:0000103C       Vcl.Graphics.TBrush.SetStyle
 0001:00001044       Vcl.Graphics.TCanvas.SetFont
 0001:0000101C       Vcl.Graphics.TPen.SetColor
 0001:00001024       Vcl.Graphics.TPen.SetStyle
 0001:0000102C       Vcl.Graphics.TPen.SetWidth
 0002:000000F0       Vcl.Graphics.Vcl.Graphics
 0001:0000109C       Vcl.GraphUtil.Finalization
 0002:00000118       Vcl.GraphUtil.Vcl.GraphUtil
 0002:0000044C       Vcl.Grids.TCustomDrawGrid.Create@
 0001:0000BDD8       Vcl.Grids.TCustomDrawGrid.Destroy@
 0002:00000444       Vcl.Grids.TCustomGrid.Create@
 0001:0000BDD0       Vcl.Grids.TCustomGrid.Destroy@
 0002:0000045C       Vcl.Grids.TDrawGrid.Create@
 0001:0000BDE8       Vcl.Grids.TDrawGrid.Destroy@
 0002:00000454       Vcl.Grids.TStringGrid.Create@
 0001:0000BDE0       Vcl.Grids.TStringGrid.Destroy@
 0001:000014FC       Vcl.ImgList.TCustomImageList.Add
 0001:00001514       Vcl.ImgList.TCustomImageList.Delete
 0001:00001504       Vcl.ImgList.TCustomImageList.GetBitmap
 0001:0000150C       Vcl.ImgList.TCustomImageList.GetCount
 0001:00001524       Vcl.ImgList.TCustomImageList.RegisterChanges
 0001:0000151C       Vcl.ImgList.TCustomImageList.UnRegisterChanges
 0001:0000152C       Vcl.Menus.Finalization
 0002:000002E8       Vcl.Menus.Vcl.Menus
 0001:00001C30       Vcl.OleServer.Finalization
 0002:000003C8       Vcl.OleServer.Vcl.OleServer
 0001:0000187C       Vcl.PlatformDefaultStyleActnCtrls.Finalization
 0002:00000360       Vcl.PlatformDefaultStyleActnCtrls.Vcl.PlatformDefaultStyleActnCtrls
 0001:0000117C       Vcl.Printers.Finalization
 0002:000001B0       Vcl.Printers.Vcl.Printers
 0002:00000190       Vcl.StdCtrls.TButton.Create@
 0001:0000115C       Vcl.StdCtrls.TButton.Destroy@
 0002:00000198       Vcl.StdCtrls.TCheckBox.Create@
 0001:00001164       Vcl.StdCtrls.TCheckBox.Destroy@
 0002:00000188       Vcl.StdCtrls.TComboBox.Create@
 0001:00001154       Vcl.StdCtrls.TComboBox.Destroy@
 0002:00000140       Vcl.StdCtrls.TCustomButton.Create@
 0001:0000110C       Vcl.StdCtrls.TCustomButton.Destroy@
 0002:00000148       Vcl.StdCtrls.TCustomCheckBox.Create@
 0001:00001114       Vcl.StdCtrls.TCustomCheckBox.Destroy@
 0002:00000138       Vcl.StdCtrls.TCustomComboBox.Create@
 0001:00001104       Vcl.StdCtrls.TCustomComboBox.Destroy@
 0002:00000128       Vcl.StdCtrls.TCustomEdit.Create@
 0001:000010F4       Vcl.StdCtrls.TCustomEdit.Destroy@
 0002:00000120       Vcl.StdCtrls.TCustomGroupBox.Create@
 0001:000010A4       Vcl.StdCtrls.TCustomGroupBox.Destroy@
 0001:000010AC       Vcl.StdCtrls.TCustomLabel.Create
 0001:000010B4       Vcl.StdCtrls.TCustomLabel.GetLabelText
 0001:000010D4       Vcl.StdCtrls.TCustomLabel.GetTransparent
 0001:000010BC       Vcl.StdCtrls.TCustomLabel.Loaded
 0001:000010E4       Vcl.StdCtrls.TCustomLabel.Notification
 0001:000010C4       Vcl.StdCtrls.TCustomLabel.SetAlignment
 0001:000010CC       Vcl.StdCtrls.TCustomLabel.SetAutoSize
 0001:000010DC       Vcl.StdCtrls.TCustomLabel.SetShowAccelChar
 0001:000010EC       Vcl.StdCtrls.TCustomLabel.UpdateStyleElements
 0002:00000158       Vcl.StdCtrls.TCustomListBox.Create@
 0001:00001124       Vcl.StdCtrls.TCustomListBox.Destroy@
 0002:00000130       Vcl.StdCtrls.TCustomMemo.Create@
 0001:000010FC       Vcl.StdCtrls.TCustomMemo.Destroy@
 0002:00000168       Vcl.StdCtrls.TCustomStaticText.Create@
 0001:00001134       Vcl.StdCtrls.TCustomStaticText.Destroy@
 0002:00000178       Vcl.StdCtrls.TEdit.Create@
 0001:00001144       Vcl.StdCtrls.TEdit.Destroy@
 0002:00000170       Vcl.StdCtrls.TGroupBox.Create@
 0001:0000113C       Vcl.StdCtrls.TGroupBox.Destroy@
 0002:000001A0       Vcl.StdCtrls.TListBox.Create@
 0001:0000116C       Vcl.StdCtrls.TListBox.Destroy@
 0002:00000180       Vcl.StdCtrls.TMemo.Create@
 0001:0000114C       Vcl.StdCtrls.TMemo.Destroy@
 0002:00000150       Vcl.StdCtrls.TRadioButton.Create@
 0001:0000111C       Vcl.StdCtrls.TRadioButton.Destroy@
 0002:00000160       Vcl.StdCtrls.TScrollBar.Create@
 0001:0000112C       Vcl.StdCtrls.TScrollBar.Destroy@
 0002:000001A8       Vcl.StdCtrls.TStaticText.Create@
 0001:00001174       Vcl.StdCtrls.TStaticText.Destroy@
 0002:000002B8       Vcl.Themes.TCustomStyleEngine.Create@
 0001:00001344       Vcl.Themes.TCustomStyleEngine.Destroy@
 0001:00019094       VCLEditors.Finalization
 0002:00000558       VCLEditors.VCLEditors
 0001:00000CE8       Winapi.ActiveX.Succeeded
 0001:00000CE0       Winapi.ActiveX.VariantInit
 0001:0000134C       Winapi.FlatSB.Finalization
 0002:000002C0       Winapi.FlatSB.Winapi.FlatSB
 0001:0000185C       Winapi.Mapi.Finalization
 0002:00000340       Winapi.Mapi.Winapi.Mapi
 0001:00001094       Winapi.UxTheme.Finalization
 0002:00000110       Winapi.UxTheme.Winapi.UxTheme
 0004:00000020       Winapi.Windows..2
 0001:00000B04       Winapi.Windows.CallNextHookEx
 0001:00000A60       Winapi.Windows.EnumResourceNames
 0001:00000B88       Winapi.Windows.Finalization
 0001:00000A68       Winapi.Windows.FreeLibrary
 0001:00000B0C       Winapi.Windows.GetAncestor
 0001:00000A70       Winapi.Windows.GetCurrentThreadId
 0001:00000A78       Winapi.Windows.GetProcAddress
 0001:00000A80       Winapi.Windows.GetProcAddress
 0001:00000AF4       Winapi.Windows.GetVersionEx
 0004:00000024       Winapi.Windows.HtmlHelpModule
 0001:00000B4C       Winapi.Windows.InitVersionInfo
 0001:00000B14       Winapi.Windows.IsWindow
 0001:00000B1C       Winapi.Windows.IsWindowVisible
 0001:00000AFC       Winapi.Windows.LoadLibrary
 0001:00000B24       Winapi.Windows.MessageBox
 0001:00000B2C       Winapi.Windows.PeekMessage
 0001:00000B34       Winapi.Windows.PostMessage
 0001:00000B3C       Winapi.Windows.SetWindowsHookEx
 0001:00000B44       Winapi.Windows.UnhookWindowsHookEx
 0003:00000088       Winapi.Windows.Win32MajorVersion
 0003:0000008C       Winapi.Windows.Win32MinorVersion
 0003:00000090       Winapi.Windows.Win32Platform
 0002:00000010       Winapi.Windows.Winapi.Windows
 0001:000018AC       Xml.Win.msxmldom.Finalization
 0002:00000388       Xml.Win.msxmldom.TMSXMLDOMDocumentFactory.Create@
 0001:000018A4       Xml.Win.msxmldom.TMSXMLDOMDocumentFactory.Destroy@
 0002:00000390       Xml.Win.msxmldom.Xml.Win.msxmldom
 0001:000018B4       Xml.Xmldom.Finalization
 0002:00000398       Xml.Xmldom.Xml.Xmldom


  Address             Publics by Value

 0001:00000000       System.@GetMem
 0001:00000008       System.@FreeMem
 0001:00000010       System.ParamStr
 0001:00000018       System.@AbstractError
 0001:00000020       System.TObject.ClassType
 0001:00000028       System.TObject.ClassName
 0001:00000030       System.TObject.ClassNameIs
 0001:00000038       System.TObject.NewInstance
 0001:00000040       System.TObject.FreeInstance
 0001:00000048       System.TObject.Create
 0001:00000050       System.TObject.Destroy
 0001:00000058       System.TObject.Free
 0001:00000060       System.TObject.Equals
 0001:00000068       System.TObject.GetHashCode
 0001:00000070       System.@IsClass
 0001:00000078       System.@CallDynaInst
 0001:00000080       System.TObject.InheritsFrom
 0001:00000088       System.TObject.ClassInfo
 0001:00000090       System.TObject.SafeCallException
 0001:00000098       System.TObject.ToString
 0001:000000A0       System.TObject.DefaultHandler
 0001:000000A8       System.TObject.AfterConstruction
 0001:000000B0       System.TObject.BeforeDestruction
 0001:000000B8       System.TObject.Dispatch
 0001:000000C0       System.@ClassCreate
 0001:000000C8       System.@ClassDestroy
 0001:000000D0       System.@AfterConstruction
 0001:000000D8       System.@BeforeDestruction
 0001:000000E0       System.@HandleAnyException
 0001:000000E8       System.@HandleOnException
 0001:000000F0       System.@HandleFinally
 0001:000000F8       System.@RaiseExcept
 0001:00000100       System.@DoneExcept
 0001:00000108       System.@TryFinallyExit
 0001:00000110       System.@PackageLoad
 0001:00000118       System.@PackageUnload
 0001:00000120       System.@InitImports
 0001:00000128       System.@RunError
 0001:00000130       System.@UStrClr
 0001:00000138       System.@LStrClr
 0001:00000140       System.@WStrClr
 0001:00000148       System.@UStrArrayClr
 0001:00000150       System.@UStrAddRef
 0001:00000158       System.@UStrAsg
 0001:00000160       System.@UStrLAsg
 0001:00000168       System.@UStrLen
 0001:00000170       System.@UniqueStringU
 0001:00000178       System.@LStrFromPWChar
 0001:00000180       System.@LStrToPChar
 0001:00000188       System.@UStrToPWChar
 0001:00000190       System.@UStrFromPWChar
 0001:00000198       System.@WStrFromUStr
 0001:000001A0       System.@UStrFromString
 0001:000001A8       System.@UStrSetLength
 0001:000001B0       System.@UStrCat
 0001:000001B8       System.@UStrCat3
 0001:000001C0       System.@UStrCatN
 0001:000001C8       System.@UStrEqual
 0001:000001D0       System.@UStrCopy
 0001:000001D8       System.@UStrDelete
 0001:000001E0       System.Pos
 0001:000001E8       System.StringOfChar
 0001:000001F0       System.@InitializeRecord
 0001:000001F8       System.@FinalizeRecord
 0001:00000200       System.@FinalizeArray
 0001:00000208       System.@AddRefArray
 0001:00000210       System.@CopyRecord
 0001:00000218       System.RegisterModule
 0001:00000220       System.UnregisterModule
 0001:00000228       System.@IntfClear
 0001:00000230       System.@IntfCopy
 0001:00000238       System.@IntfCast
 0001:00000240       System.TInterfacedObject.AfterConstruction
 0001:00000248       System.TInterfacedObject.BeforeDestruction
 0001:00000250       System.TInterfacedObject.NewInstance
 0001:00000258       System.TInterfacedObject.QueryInterface
 0001:00000260       System.TInterfacedObject._AddRef
 0001:00000268       System.TInterfacedObject._Release
 0001:00000270       System.Finalization
 0001:00000278       SysInit.InterlockedExchange
 0001:0000028C       SysInit.FreeLibrary
 0001:00000294       SysInit.LocalAlloc
 0001:0000029C       SysInit.LocalFree
 0001:000002A4       SysInit.TlsAlloc
 0001:000002AC       SysInit.TlsFree
 0001:000002B4       SysInit.TlsGetValue
 0001:000002BC       SysInit.TlsSetValue
 0001:000002C4       SysInit.GetLastError
 0001:000002CC       SysInit.LoadLibraryA
 0001:000002D4       SysInit.RaiseException
 0001:000002DC       SysInit.GetProcAddress
 0001:000002E4       SysInit.AllocTlsBuffer
 0001:000002F0       SysInit.GetTlsSize
 0001:000002F8       SysInit.InitThreadTLS
 0001:0000033C       SysInit.InitProcessTLS
 0001:00000368       SysInit.ExitThreadTLS
 0001:000003A0       SysInit.ExitProcessTLS
 0001:000003C4       SysInit.InitializeModule
 0001:000003D0       SysInit.UninitializeModule
 0001:000003F4       SysInit.@InitPkg
 0001:00000458       SysInit.@PackageLoad
 0001:00000464       SysInit.@PackageUnload
 0001:00000470       SysInit.@_delayLoadHelper2
 0001:00000750       SysInit.@_FUnloadDelayLoadedDLL2
 0001:00000860       SysInit.@_HrLoadAllImportsForDll
 0001:00000918       SysInit.ShutdownDelayHelp2
 0001:00000920       SysInit...
 0001:00000930       SysInit...
 0001:00000940       SysInit...
 0001:00000950       SysInit...
 0001:00000960       SysInit...
 0001:00000970       SysInit...
 0001:00000984       SysInit...
 0001:000009B4       SysInit...
 0001:000009CC       SysInit...
 0001:000009F4       SysInit...
 0001:00000A18       SysInit...
 0001:00000A28       SysInit...
 0001:00000A38       SysInit.Finalization
 0001:00000A60       Winapi.Windows.EnumResourceNames
 0001:00000A68       Winapi.Windows.FreeLibrary
 0001:00000A70       Winapi.Windows.GetCurrentThreadId
 0001:00000A78       Winapi.Windows.GetProcAddress
 0001:00000A80       Winapi.Windows.GetProcAddress
 0001:00000AF4       Winapi.Windows.GetVersionEx
 0001:00000AFC       Winapi.Windows.LoadLibrary
 0001:00000B04       Winapi.Windows.CallNextHookEx
 0001:00000B0C       Winapi.Windows.GetAncestor
 0001:00000B14       Winapi.Windows.IsWindow
 0001:00000B1C       Winapi.Windows.IsWindowVisible
 0001:00000B24       Winapi.Windows.MessageBox
 0001:00000B2C       Winapi.Windows.PeekMessage
 0001:00000B34       Winapi.Windows.PostMessage
 0001:00000B3C       Winapi.Windows.SetWindowsHookEx
 0001:00000B44       Winapi.Windows.UnhookWindowsHookEx
 0001:00000B4C       Winapi.Windows.InitVersionInfo
 0001:00000B88       Winapi.Windows.Finalization
 0001:00000BA8       System.Internal.ExcUtils.Finalization
 0001:00000BB0       System.SysUtils.TOSVersion.Destroy@
 0001:00000BB8       System.SysUtils.TSearchRec.GetTimeStamp
 0001:00000BC0       System.SysUtils.UpperCase
 0001:00000BC8       System.SysUtils.LowerCase
 0001:00000BD0       System.SysUtils.CompareText
 0001:00000BD8       System.SysUtils.AnsiCompareText
 0001:00000BE0       System.SysUtils.Trim
 0001:00000BE8       System.SysUtils.IntToStr
 0001:00000BF0       System.SysUtils.IntToStr
 0001:00000BF8       System.SysUtils.StrToIntDef
 0001:00000C00       System.SysUtils.FileExists
 0001:00000C08       System.SysUtils.FileGetAttr
 0001:00000C10       System.SysUtils.FindFirst
 0001:00000C18       System.SysUtils.FindNext
 0001:00000C20       System.SysUtils.FindClose
 0001:00000C28       System.SysUtils.ExtractFilePath
 0001:00000C30       System.SysUtils.ExtractFileName
 0001:00000C38       System.SysUtils.ExtractFileExt
 0001:00000C40       System.SysUtils.Format
 0001:00000C48       System.SysUtils.Now
 0001:00000C50       System.SysUtils.DateTimeToStr
 0001:00000C58       System.SysUtils.Exception.Create
 0001:00000C60       System.SysUtils.Exception.CreateFmt
 0001:00000C68       System.SysUtils.Exception.CreateRes
 0001:00000C70       System.SysUtils.Exception.Destroy
 0001:00000C78       System.SysUtils.Exception.GetBaseException
 0001:00000C80       System.SysUtils.Exception.RaisingException
 0001:00000C88       System.SysUtils.Exception.ToString
 0001:00000C90       System.SysUtils.Exception.Destroy@
 0001:00000C98       System.SysUtils.FreeAndNil
 0001:00000CA0       System.SysUtils.TLanguages.Destroy@
 0001:00000CA8       System.SysUtils.TEncoding.Destroy@
 0001:00000CB0       System.SysUtils.Finalization
 0001:00000CB8       System.VarUtils.Finalization
 0001:00000CC0       System.Variants.@VarClr
 0001:00000CC8       System.Variants.@VarToUStr
 0001:00000CD0       System.Variants.@OleVarFromUStr
 0001:00000CD8       System.Variants.Finalization
 0001:00000CE0       Winapi.ActiveX.VariantInit
 0001:00000CE8       Winapi.ActiveX.Succeeded
 0001:00000CF4       System.StrUtils.LeftStr
 0001:00000CFC       System.StrUtils.RightStr
 0001:00000D04       System.Math.Finalization
 0001:00000D0C       System.TimeSpan.TTimeSpan.Destroy@
 0001:00000D14       System.SyncObjs.Finalization
 0001:00000D1C       System.Generics.Defaults.TStringComparer.Destroy@
 0001:00000D24       System.Generics.Defaults.TIStringComparer.Destroy@
 0001:00000D2C       System.Rtti.Finalization
 0001:00000D34       System.TypInfo.GetObjectProp
 0001:00000D3C       System.TypInfo.GetPropValue
 0001:00000D44       System.TypInfo.GetTypeData
 0001:00000D4C       System.TypInfo.GetEnumName
 0001:00000D54       System.TypInfo.GetEnumValue
 0001:00000D5C       System.TypInfo.IsPublishedProp
 0001:00000D64       System.TypInfo.GetPropList
 0001:00000D6C       System.TypInfo.Finalization
 0001:00000D74       System.Classes.TComponent.Destroy@
 0001:00000D7C       System.Classes.RegisterComponents
 0001:00000D84       System.Classes.TList.Add
 0001:00000D8C       System.Classes.TList.Delete
 0001:00000D94       System.Classes.TList.Get
 0001:00000D9C       System.Classes.TList.IndexOf
 0001:00000DA4       System.Classes.TInterfaceList.Create
 0001:00000DAC       System.Classes.TInterfaceList.Delete
 0001:00000DB4       System.Classes.TInterfaceList.Get
 0001:00000DBC       System.Classes.TInterfaceList.GetCount
 0001:00000DC4       System.Classes.TInterfaceList.Add
 0001:00000DCC       System.Classes.TPersistent.Assign
 0001:00000DD4       System.Classes.TPersistent.AssignTo
 0001:00000DDC       System.Classes.TPersistent.DefineProperties
 0001:00000DE4       System.Classes.TCollectionItem.Create
 0001:00000DEC       System.Classes.TCollectionItem.Destroy
 0001:00000DF4       System.Classes.TCollectionItem.Release
 0001:00000DFC       System.Classes.TCollectionItem.GetDisplayName
 0001:00000E04       System.Classes.TCollectionItem.SetCollection
 0001:00000E0C       System.Classes.TCollectionItem.SetDisplayName
 0001:00000E14       System.Classes.TCollectionItem.SetIndex
 0001:00000E1C       System.Classes.TCollection.Create
 0001:00000E24       System.Classes.TCollection.Destroy
 0001:00000E2C       System.Classes.TCollection.Add
 0001:00000E34       System.Classes.TCollection.Assign
 0001:00000E3C       System.Classes.TCollection.BeginUpdate
 0001:00000E44       System.Classes.TCollection.Clear
 0001:00000E4C       System.Classes.TCollection.EndUpdate
 0001:00000E54       System.Classes.TCollection.GetCount
 0001:00000E5C       System.Classes.TCollection.GetItem
 0001:00000E64       System.Classes.TCollection.SetItem
 0001:00000E6C       System.Classes.TCollection.SetItemName
 0001:00000E74       System.Classes.TCollection.Update
 0001:00000E7C       System.Classes.TCollection.Added
 0001:00000E84       System.Classes.TCollection.Deleting
 0001:00000E8C       System.Classes.TCollection.Notify
 0001:00000E94       System.Classes.TStringList.SetSorted
 0001:00000E9C       System.Classes.TStringList.Create
 0001:00000EA4       System.Classes.TStream.SetPosition
 0001:00000EAC       System.Classes.TStream.ReadBuffer
 0001:00000EB4       System.Classes.TFileStream.Create
 0001:00000EBC       System.Classes.TStringStream.Create
 0001:00000EC4       System.Classes.TResourceStream.Create
 0001:00000ECC       System.Classes.TFiler.Create
 0001:00000ED4       System.Classes.TReader.EndOfList
 0001:00000EDC       System.Classes.TReader.ReadListBegin
 0001:00000EE4       System.Classes.TReader.ReadListEnd
 0001:00000EEC       System.Classes.TReader.ReadSignature
 0001:00000EF4       System.Classes.TReader.ReadStr
 0001:00000EFC       System.Classes.TReader.ReadString
 0001:00000F04       System.Classes.TWriter.WriteListBegin
 0001:00000F0C       System.Classes.TWriter.WriteListEnd
 0001:00000F14       System.Classes.TWriter.WriteString
 0001:00000F1C       System.Classes.TThread.Destroy@
 0001:00000F24       System.Classes.TComponent.Create
 0001:00000F2C       System.Classes.TComponent.Destroy
 0001:00000F34       System.Classes.TComponent.BeforeDestruction
 0001:00000F3C       System.Classes.TComponent.FreeNotification
 0001:00000F44       System.Classes.TComponent.RemoveFreeNotification
 0001:00000F4C       System.Classes.TComponent.Notification
 0001:00000F54       System.Classes.TComponent.DefineProperties
 0001:00000F5C       System.Classes.TComponent.Loaded
 0001:00000F64       System.Classes.TComponent.ReadState
 0001:00000F6C       System.Classes.TComponent.WriteState
 0001:00000F74       System.Classes.TComponent.ValidateRename
 0001:00000F7C       System.Classes.TComponent.SetName
 0001:00000F84       System.Classes.TComponent.GetComponent
 0001:00000F8C       System.Classes.TComponent.GetComponentCount
 0001:00000F94       System.Classes.TComponent.GetObservers
 0001:00000F9C       System.Classes.TComponent.UpdateAction
 0001:00000FA4       System.Classes.TComponent.CanObserve
 0001:00000FAC       System.Classes.TComponent.ObserverAdded
 0001:00000FB4       System.Classes.TComponent.SafeCallException
 0001:00000FBC       System.Classes.TComponent.UpdateRegistry
 0001:00000FC4       System.Classes.TComponent.QueryInterface
 0001:00000FCC       System.Classes.TBinaryWriter.Destroy@
 0001:00000FD4       System.Classes.TLoginCredentialService.Destroy@
 0001:00000FDC       System.Classes.TObserverMapping.Destroy@
 0001:00000FE4       System.Classes.Finalization
 0001:00000FEC       System.DateUtils.SecondSpan
 0001:00000FF4       System.DateUtils.MilliSecondSpan
 0001:00000FFC       System.DateUtils.TTimeZone.Destroy@
 0001:00001004       System.IOUtils.TPath.Destroy@
 0001:0000100C       System.IOUtils.Finalization
 0001:00001014       System.Win.Registry.TRegistry.Destroy@
 0001:0000101C       Vcl.Graphics.TPen.SetColor
 0001:00001024       Vcl.Graphics.TPen.SetStyle
 0001:0000102C       Vcl.Graphics.TPen.SetWidth
 0001:00001034       Vcl.Graphics.TBrush.SetColor
 0001:0000103C       Vcl.Graphics.TBrush.SetStyle
 0001:00001044       Vcl.Graphics.TCanvas.SetFont
 0001:0000104C       Vcl.Graphics.TBitmap.Create
 0001:00001054       Vcl.Graphics.TBitmap.GetCanvas
 0001:0000105C       Vcl.Graphics.Finalization
 0001:00001064       System.Contnrs.TObjectList.Add
 0001:0000106C       System.Contnrs.TObjectList.Create
 0001:00001074       System.Contnrs.TObjectList.GetItem
 0001:0000107C       System.Actions.Finalization
 0001:00001084       Vcl.ActnList.Finalization
 0001:0000108C       System.HelpIntfs.Finalization
 0001:00001094       Winapi.UxTheme.Finalization
 0001:0000109C       Vcl.GraphUtil.Finalization
 0001:000010A4       Vcl.StdCtrls.TCustomGroupBox.Destroy@
 0001:000010AC       Vcl.StdCtrls.TCustomLabel.Create
 0001:000010B4       Vcl.StdCtrls.TCustomLabel.GetLabelText
 0001:000010BC       Vcl.StdCtrls.TCustomLabel.Loaded
 0001:000010C4       Vcl.StdCtrls.TCustomLabel.SetAlignment
 0001:000010CC       Vcl.StdCtrls.TCustomLabel.SetAutoSize
 0001:000010D4       Vcl.StdCtrls.TCustomLabel.GetTransparent
 0001:000010DC       Vcl.StdCtrls.TCustomLabel.SetShowAccelChar
 0001:000010E4       Vcl.StdCtrls.TCustomLabel.Notification
 0001:000010EC       Vcl.StdCtrls.TCustomLabel.UpdateStyleElements
 0001:000010F4       Vcl.StdCtrls.TCustomEdit.Destroy@
 0001:000010FC       Vcl.StdCtrls.TCustomMemo.Destroy@
 0001:00001104       Vcl.StdCtrls.TCustomComboBox.Destroy@
 0001:0000110C       Vcl.StdCtrls.TCustomButton.Destroy@
 0001:00001114       Vcl.StdCtrls.TCustomCheckBox.Destroy@
 0001:0000111C       Vcl.StdCtrls.TRadioButton.Destroy@
 0001:00001124       Vcl.StdCtrls.TCustomListBox.Destroy@
 0001:0000112C       Vcl.StdCtrls.TScrollBar.Destroy@
 0001:00001134       Vcl.StdCtrls.TCustomStaticText.Destroy@
 0001:0000113C       Vcl.StdCtrls.TGroupBox.Destroy@
 0001:00001144       Vcl.StdCtrls.TEdit.Destroy@
 0001:0000114C       Vcl.StdCtrls.TMemo.Destroy@
 0001:00001154       Vcl.StdCtrls.TComboBox.Destroy@
 0001:0000115C       Vcl.StdCtrls.TButton.Destroy@
 0001:00001164       Vcl.StdCtrls.TCheckBox.Destroy@
 0001:0000116C       Vcl.StdCtrls.TListBox.Destroy@
 0001:00001174       Vcl.StdCtrls.TStaticText.Destroy@
 0001:0000117C       Vcl.Printers.Finalization
 0001:00001184       Vcl.Clipbrd.Finalization
 0001:0000118C       Vcl.ComCtrls.TCustomTabControl.Destroy@
 0001:00001194       Vcl.ComCtrls.TTabControl.Destroy@
 0001:0000119C       Vcl.ComCtrls.TCustomStatusBar.Destroy@
 0001:000011A4       Vcl.ComCtrls.TCustomHeaderControl.Destroy@
 0001:000011AC       Vcl.ComCtrls.TTreeNode.GetSelected
 0001:000011B4       Vcl.ComCtrls.TTreeNodes.GetNode
 0001:000011BC       Vcl.ComCtrls.TCustomTreeView.Destroy@
 0001:000011C4       Vcl.ComCtrls.TTreeView.Destroy@
 0001:000011CC       Vcl.ComCtrls.TTrackBar.Destroy@
 0001:000011D4       Vcl.ComCtrls.TProgressBar.Destroy@
 0001:000011DC       Vcl.ComCtrls.TCustomRichEdit.Destroy@
 0001:000011E4       Vcl.ComCtrls.TRichEdit.Destroy@
 0001:000011EC       Vcl.ComCtrls.TCustomUpDown.Destroy@
 0001:000011F4       Vcl.ComCtrls.TUpDown.Destroy@
 0001:000011FC       Vcl.ComCtrls.TCustomHotKey.Destroy@
 0001:00001204       Vcl.ComCtrls.THotKey.Destroy@
 0001:0000120C       Vcl.ComCtrls.TListColumn.GetWidth
 0001:00001214       Vcl.ComCtrls.TListColumn.SetWidth
 0001:0000121C       Vcl.ComCtrls.TListColumns.GetItem
 0001:00001224       Vcl.ComCtrls.TListItem.SetImage
 0001:0000122C       Vcl.ComCtrls.TListItems.GetCount
 0001:00001234       Vcl.ComCtrls.TListItems.GetItem
 0001:0000123C       Vcl.ComCtrls.TListItems.BeginUpdate
 0001:00001244       Vcl.ComCtrls.TListItems.EndUpdate
 0001:0000124C       Vcl.ComCtrls.TCustomListView.Destroy@
 0001:00001254       Vcl.ComCtrls.TCustomListView.SetSmallImages
 0001:0000125C       Vcl.ComCtrls.TCustomListView.SetStateImages
 0001:00001264       Vcl.ComCtrls.TListView.Destroy@
 0001:0000126C       Vcl.ComCtrls.TToolBar.Destroy@
 0001:00001274       Vcl.ComCtrls.TCoolBar.Destroy@
 0001:0000127C       Vcl.ComCtrls.TDateTimePicker.Destroy@
 0001:00001284       Vcl.ComCtrls.TPageScroller.Destroy@
 0001:0000128C       Vcl.ComCtrls.TCustomComboBoxEx.Destroy@
 0001:00001294       Vcl.ComCtrls.TComboBoxEx.Destroy@
 0001:0000129C       Vcl.ComCtrls.TStatusBar.Destroy@
 0001:000012A4       Vcl.ComCtrls.THeaderControl.Destroy@
 0001:000012AC       Vcl.ComCtrls.Finalization
 0001:000012B4       Vcl.Dialogs.MessageDlg
 0001:000012BC       Vcl.Dialogs.Finalization
 0001:000012C4       Vcl.ExtCtrls.TTimer.Create
 0001:000012CC       Vcl.ExtCtrls.TTimer.SetEnabled
 0001:000012D4       Vcl.ExtCtrls.TTimer.SetInterval
 0001:000012DC       Vcl.ExtCtrls.TTimer.SetOnTimer
 0001:000012E4       Vcl.ExtCtrls.TCustomPanel.Create
 0001:000012EC       Vcl.ExtCtrls.TCustomPanel.CreateParams
 0001:000012F4       Vcl.ExtCtrls.TCustomPanel.CMTextChanged
 0001:000012FC       Vcl.ExtCtrls.TCustomPanel.UpdateStyleElements
 0001:00001304       Vcl.ExtCtrls.TCustomPanel.AdjustClientRect
 0001:0000130C       Vcl.ExtCtrls.TCustomPanel.CanAutoSize
 0001:00001314       Vcl.ExtCtrls.TCustomPanel.SetParentBackground
 0001:0000131C       Vcl.ExtCtrls.TCustomCategoryPanelGroup.Destroy@
 0001:00001324       Vcl.ExtCtrls.TCategoryPanelGroup.Destroy@
 0001:0000132C       Vcl.ExtCtrls.TCustomLinkLabel.Destroy@
 0001:00001334       Vcl.ExtCtrls.TLinkLabel.Destroy@
 0001:0000133C       Vcl.ExtCtrls.Finalization
 0001:00001344       Vcl.Themes.TCustomStyleEngine.Destroy@
 0001:0000134C       Winapi.FlatSB.Finalization
 0001:00001354       Vcl.Forms.TScrollingWinControl.AutoScrollEnabled
 0001:0000135C       Vcl.Forms.TScrollingWinControl.DoGesture
 0001:00001364       Vcl.Forms.TScrollingWinControl.DoGetGestureOptions
 0001:0000136C       Vcl.Forms.TScrollingWinControl.AutoScrollInView
 0001:00001374       Vcl.Forms.TScrollingWinControl.AdjustClientRect
 0001:0000137C       Vcl.Forms.TScrollBox.Destroy@
 0001:00001384       Vcl.Forms.TCustomForm.Create
 0001:0000138C       Vcl.Forms.TCustomForm.Destroy@
 0001:00001394       Vcl.Forms.TCustomForm.AfterConstruction
 0001:0000139C       Vcl.Forms.TCustomForm.CreateNew
 0001:000013A4       Vcl.Forms.TCustomForm.BeforeDestruction
 0001:000013AC       Vcl.Forms.TCustomForm.Destroy
 0001:000013B4       Vcl.Forms.TCustomForm.DoCreate
 0001:000013BC       Vcl.Forms.TCustomForm.DoDestroy
 0001:000013C4       Vcl.Forms.TCustomForm.Loaded
 0001:000013CC       Vcl.Forms.TCustomForm.Notification
 0001:000013D4       Vcl.Forms.TCustomForm.ReadState
 0001:000013DC       Vcl.Forms.TCustomForm.DefineProperties
 0001:000013E4       Vcl.Forms.TCustomForm.GetClientRect
 0001:000013EC       Vcl.Forms.TCustomForm.GetFloating
 0001:000013F4       Vcl.Forms.TCustomForm.SetParentBiDiMode
 0001:000013FC       Vcl.Forms.TCustomForm.WantChildKey
 0001:00001404       Vcl.Forms.TCustomForm.SetParent
 0001:0000140C       Vcl.Forms.TCustomForm.ValidateRename
 0001:00001414       Vcl.Forms.TCustomForm.WndProc
 0001:0000141C       Vcl.Forms.TCustomForm.ClientWndProc
 0001:00001424       Vcl.Forms.TCustomForm.AlignControls
 0001:0000142C       Vcl.Forms.TCustomForm.GetCanvas
 0001:00001434       Vcl.Forms.TCustomForm.CreateParams
 0001:0000143C       Vcl.Forms.TCustomForm.CreateWnd
 0001:00001444       Vcl.Forms.TCustomForm.CreateWindowHandle
 0001:0000144C       Vcl.Forms.TCustomForm.DestroyHandle
 0001:00001454       Vcl.Forms.TCustomForm.DestroyWindowHandle
 0001:0000145C       Vcl.Forms.TCustomForm.DefaultHandler
 0001:00001464       Vcl.Forms.TCustomForm.SetFocusedControl
 0001:0000146C       Vcl.Forms.TCustomForm.PaintWindow
 0001:00001474       Vcl.Forms.TCustomForm.Resizing
 0001:0000147C       Vcl.Forms.TCustomForm.Close
 0001:00001484       Vcl.Forms.TCustomForm.CloseQuery
 0001:0000148C       Vcl.Forms.TCustomForm.Show
 0001:00001494       Vcl.Forms.TCustomForm.SetFocus
 0001:0000149C       Vcl.Forms.TCustomForm.ShowModal
 0001:000014A4       Vcl.Forms.TCustomForm.UpdateActions
 0001:000014AC       Vcl.Forms.TCustomForm.RequestAlign
 0001:000014B4       Vcl.Forms.TCustomForm.QueryInterface
 0001:000014BC       Vcl.Forms.TCustomForm.SetLeft
 0001:000014C4       Vcl.Forms.TCustomForm.SetTop
 0001:000014CC       Vcl.Forms.TForm.Destroy@
 0001:000014D4       Vcl.Forms.TScreen.GetHeight
 0001:000014DC       Vcl.Forms.TScreen.GetWidth
 0001:000014E4       Vcl.Forms.TApplication.ProcessMessages
 0001:000014EC       Vcl.Forms.TApplication.GetExeName
 0001:000014F4       Vcl.Forms.Finalization
 0001:000014FC       Vcl.ImgList.TCustomImageList.Add
 0001:00001504       Vcl.ImgList.TCustomImageList.GetBitmap
 0001:0000150C       Vcl.ImgList.TCustomImageList.GetCount
 0001:00001514       Vcl.ImgList.TCustomImageList.Delete
 0001:0000151C       Vcl.ImgList.TCustomImageList.UnRegisterChanges
 0001:00001524       Vcl.ImgList.TCustomImageList.RegisterChanges
 0001:0000152C       Vcl.Menus.Finalization
 0001:00001534       System.Win.ComObj.TComServerObject.Destroy@
 0001:0000153C       System.Win.ComObj.OleCheck
 0001:00001544       System.Win.ComObj.CreateComObject
 0001:0000154C       System.Win.ComObj.CreateRemoteComObject
 0001:00001554       System.Win.ComObj.Finalization
 0001:0000155C       Vcl.Controls.TControl.GetDragImages
 0001:00001564       Vcl.Controls.TControl.GetEnabled
 0001:0000156C       Vcl.Controls.TControl.GetAction
 0001:00001574       Vcl.Controls.TControl.SetDragMode
 0001:0000157C       Vcl.Controls.TControl.RequestAlign
 0001:00001584       Vcl.Controls.TControl.ReadState
 0001:0000158C       Vcl.Controls.TControl.SetAlign
 0001:00001594       Vcl.Controls.TControl.SetBounds
 0001:0000159C       Vcl.Controls.TControl.SetWidth
 0001:000015A4       Vcl.Controls.TControl.SetHeight
 0001:000015AC       Vcl.Controls.TControl.GetBoundsRect
 0001:000015B4       Vcl.Controls.TControl.GetClientRect
 0001:000015BC       Vcl.Controls.TControl.GetClientOrigin
 0001:000015C4       Vcl.Controls.TControl.SetAutoSize
 0001:000015CC       Vcl.Controls.TControl.SetName
 0001:000015D4       Vcl.Controls.TControl.SetParent
 0001:000015DC       Vcl.Controls.TControl.SetEnabled
 0001:000015E4       Vcl.Controls.TControl.GetText
 0001:000015EC       Vcl.Controls.TControl.SetText
 0001:000015F4       Vcl.Controls.TControl.SetBiDiMode
 0001:000015FC       Vcl.Controls.TControl.SetParentBiDiMode
 0001:00001604       Vcl.Controls.TControl.GetDeviceContext
 0001:0000160C       Vcl.Controls.TControl.Invalidate
 0001:00001614       Vcl.Controls.TControl.Update
 0001:0000161C       Vcl.Controls.TControl.Repaint
 0001:00001624       Vcl.Controls.TControl.DoGesture
 0001:0000162C       Vcl.Controls.TControl.DoGetGestureOptions
 0001:00001634       Vcl.Controls.TControl.CanAutoSize
 0001:0000163C       Vcl.Controls.TControl.CanResize
 0001:00001644       Vcl.Controls.TControl.ConstrainedResize
 0001:0000164C       Vcl.Controls.TControl.Perform
 0001:00001654       Vcl.Controls.TControl.WndProc
 0001:0000165C       Vcl.Controls.TControl.DefaultHandler
 0001:00001664       Vcl.Controls.TControl.DefineProperties
 0001:0000166C       Vcl.Controls.TControl.CreateTouchManager
 0001:00001674       Vcl.Controls.TControl.Loaded
 0001:0000167C       Vcl.Controls.TControl.AssignTo
 0001:00001684       Vcl.Controls.TControl.GetFloating
 0001:0000168C       Vcl.Controls.TControl.GetFloatingDockSiteClass
 0001:00001694       Vcl.Controls.TControl.InitiateAction
 0001:0000169C       Vcl.Controls.TWinControl.ReadState
 0001:000016A4       Vcl.Controls.TWinControl.AlignControls
 0001:000016AC       Vcl.Controls.TWinControl.GetControl
 0001:000016B4       Vcl.Controls.TWinControl.GetControlCount
 0001:000016BC       Vcl.Controls.TWinControl.Notification
 0001:000016C4       Vcl.Controls.TWinControl.CreateWnd
 0001:000016CC       Vcl.Controls.TWinControl.CreateWindowHandle
 0001:000016D4       Vcl.Controls.TWinControl.DefineProperties
 0001:000016DC       Vcl.Controls.TWinControl.DestroyWnd
 0001:000016E4       Vcl.Controls.TWinControl.DestroyWindowHandle
 0001:000016EC       Vcl.Controls.TWinControl.CreateHandle
 0001:000016F4       Vcl.Controls.TWinControl.CustomAlignInsertBefore
 0001:000016FC       Vcl.Controls.TWinControl.CustomAlignPosition
 0001:00001704       Vcl.Controls.TWinControl.DestroyHandle
 0001:0000170C       Vcl.Controls.TWinControl.SetParentDoubleBuffered
 0001:00001714       Vcl.Controls.TWinControl.WndProc
 0001:0000171C       Vcl.Controls.TWinControl.DefaultHandler
 0001:00001724       Vcl.Controls.TWinControl.RequestAlign
 0001:0000172C       Vcl.Controls.TWinControl.DoEnter
 0001:00001734       Vcl.Controls.TWinControl.DoExit
 0001:0000173C       Vcl.Controls.TWinControl.CMFontChanged
 0001:00001744       Vcl.Controls.TWinControl.SetBounds
 0001:0000174C       Vcl.Controls.TWinControl.ShowControl
 0001:00001754       Vcl.Controls.TWinControl.GetDeviceContext
 0001:0000175C       Vcl.Controls.TWinControl.Invalidate
 0001:00001764       Vcl.Controls.TWinControl.Update
 0001:0000176C       Vcl.Controls.TWinControl.Repaint
 0001:00001774       Vcl.Controls.TWinControl.SetFocus
 0001:0000177C       Vcl.Controls.TWinControl.GetHandle
 0001:00001784       Vcl.Controls.TWinControl.GetControlExtents
 0001:0000178C       Vcl.Controls.TWinControl.GetClientOrigin
 0001:00001794       Vcl.Controls.TWinControl.GetClientRect
 0001:0000179C       Vcl.Controls.TWinControl.SetTabStop
 0001:000017A4       Vcl.Controls.TWinControl.CanResize
 0001:000017AC       Vcl.Controls.TWinControl.ConstrainedResize
 0001:000017B4       Vcl.Controls.TWinControl.UpdateStyleElements
 0001:000017BC       Vcl.Controls.TWinControl.AssignTo
 0001:000017C4       Vcl.Controls.TWinControl.CanAutoSize
 0001:000017CC       Vcl.Controls.TWinControl.SetParentBackground
 0001:000017D4       Vcl.Controls.TWinControl.DockReplaceDockClient
 0001:000017DC       Vcl.Controls.TWinControl.UpdateTIPStatus
 0001:000017E4       Vcl.Controls.TWinControl.UpdateControlOriginalParentSize
 0001:000017EC       Vcl.Controls.TWinControl.SetParent
 0001:000017F4       Vcl.Controls.TGraphicControl.Destroy
 0001:000017FC       Vcl.Controls.TCustomControl.Destroy
 0001:00001804       Vcl.Controls.TCustomControl.PaintWindow
 0001:0000180C       Vcl.Controls.Finalization
 0001:00001814       DesignIntf.RegisterComponentEditor
 0001:0000181C       DesignIntf.RegisterPropertyEditor
 0001:00001824       IDEMessages.Finalization
 0001:0000182C       Vcl.CaptionedDockTree.Finalization
 0001:00001834       Vcl.DockTabSet.Finalization
 0001:0000183C       PercentageDockTree.Finalization
 0001:00001844       Vcl.Buttons.TBitBtn.Destroy@
 0001:0000184C       Vcl.Buttons.Finalization
 0001:00001854       Vcl.ExtDlgs.Finalization
 0001:0000185C       Winapi.Mapi.Finalization
 0001:00001864       Vcl.ExtActns.Finalization
 0001:0000186C       Vcl.ActnMenus.Finalization
 0001:00001874       Vcl.ActnMan.Finalization
 0001:0000187C       Vcl.PlatformDefaultStyleActnCtrls.Finalization
 0001:00001884       BaseDock.Finalization
 0001:0000188C       DeskUtil.Finalization
 0001:00001894       DeskForm.Finalization
 0001:0000189C       DockForm.Finalization
 0001:000018A4       Xml.Win.msxmldom.TMSXMLDOMDocumentFactory.Destroy@
 0001:000018AC       Xml.Win.msxmldom.Finalization
 0001:000018B4       Xml.Xmldom.Finalization
 0001:000018BC       ToolsAPI.TNotifierObject.AfterSave
 0001:000018C4       ToolsAPI.TNotifierObject.BeforeSave
 0001:000018CC       ToolsAPI.TNotifierObject.Destroyed
 0001:000018D4       ToolsAPI.TNotifierObject.Modified
 0001:000018DC       ToolsAPI.Finalization
 0001:000018E4       Proxies.Finalization
 0001:000018EC       DesignEditors.TPropertyEditor.Create
 0001:000018F4       DesignEditors.TPropertyEditor.Destroy
 0001:000018FC       DesignEditors.TPropertyEditor.Activate
 0001:00001904       DesignEditors.TPropertyEditor.AllEqual
 0001:0000190C       DesignEditors.TPropertyEditor.Edit
 0001:00001914       DesignEditors.TPropertyEditor.AutoFill
 0001:0000191C       DesignEditors.TPropertyEditor.GetAttributes
 0001:00001924       DesignEditors.TPropertyEditor.GetComponent
 0001:0000192C       DesignEditors.TPropertyEditor.GetEditLimit
 0001:00001934       DesignEditors.TPropertyEditor.GetName
 0001:0000193C       DesignEditors.TPropertyEditor.GetProperties
 0001:00001944       DesignEditors.TPropertyEditor.GetPropInfo
 0001:0000194C       DesignEditors.TPropertyEditor.GetPropType
 0001:00001954       DesignEditors.TPropertyEditor.GetValueW
 0001:0000195C       DesignEditors.TPropertyEditor.GetValues
 0001:00001964       DesignEditors.TPropertyEditor.Initialize
 0001:0000196C       DesignEditors.TPropertyEditor.Modified
 0001:00001974       DesignEditors.TPropertyEditor.SetPropEntry
 0001:0000197C       DesignEditors.TPropertyEditor.SetValue
 0001:00001984       DesignEditors.TPropertyEditor.SetValue
 0001:0000198C       DesignEditors.TPropertyEditor.GetIsDefault
 0001:00001994       DesignEditors.TStringProperty.AllEqual
 0001:0000199C       DesignEditors.TStringProperty.GetEditLimit
 0001:000019A4       DesignEditors.TStringProperty.GetValue
 0001:000019AC       DesignEditors.TStringProperty.SetValue
 0001:000019B4       DesignEditors.TNestedProperty.Create
 0001:000019BC       DesignEditors.TNestedProperty.Destroy
 0001:000019C4       DesignEditors.TClassProperty.GetProperties
 0001:000019CC       DesignEditors.TClassProperty.GetValue
 0001:000019D4       DesignEditors.TComponentProperty.Edit
 0001:000019DC       DesignEditors.TComponentProperty.GetAttributes
 0001:000019E4       DesignEditors.TComponentProperty.GetSelections
 0001:000019EC       DesignEditors.TComponentProperty.GetProperties
 0001:000019F4       DesignEditors.TComponentProperty.GetEditLimit
 0001:000019FC       DesignEditors.TComponentProperty.GetValue
 0001:00001A04       DesignEditors.TComponentProperty.GetValues
 0001:00001A0C       DesignEditors.TComponentProperty.SetValue
 0001:00001A14       DesignEditors.TComponentProperty.AllEqual
 0001:00001A1C       DesignEditors.TComponentProperty.GetComponentReference
 0001:00001A24       DesignEditors.TComponentProperty.ShowReferenceProperty
 0001:00001A2C       DesignEditors.TComponentEditor.Create
 0001:00001A34       DesignEditors.TComponentEditor.GetDesigner
 0001:00001A3C       DesignEditors.TComponentEditor.GetVerb
 0001:00001A44       DesignEditors.TComponentEditor.ExecuteVerb
 0001:00001A4C       DesignEditors.TComponentEditor.Copy
 0001:00001A54       DesignEditors.TComponentEditor.PrepareItem
 0001:00001A5C       DesignEditors.Finalization
 0001:00001A64       VAClasses.TVABaseMethodList.GetMethod
 0001:00001A6C       VAClasses.TVAMethodList.Add
 0001:00001A74       VAClasses.TVAMethodList.Count
 0001:00001A7C       VAClasses.TVAMethodList.Create
 0001:00001A84       VAClasses.TVAMethodList.Remove
 0001:00001A8C       VAClasses.TVANotificationEventComponent.NotifyCreate
 0001:00001A94       VAUtils.Piece
 0001:00001A9C       VAUtils.FreeAndNilTStringsAndObjects
 0001:00001AA4       VAUtils.ScreenReaderActive
 0001:00001AAC       VAUtils.ScreenReaderSupportEnabled
 0001:00001AB4       VAUtils.GetFileWithShortenedPath
 0001:00001ABC       VAUtils.FastIntToHex
 0001:00001AC4       VAUtils.FastHexToByte
 0001:00001ACC       VAUtils.FastHexToInt
 0001:00001AD4       VAUtils.AppendBackSlash
 0001:00001ADC       VAUtils.GetProgramFilesPath
 0001:00001AE4       VAUtils.GetAlternateProgramFilesPath
 0001:00001AEC       VAUtils.VersionStringSplit
 0001:00001AF4       VAUtils.Finalization
 0001:00001C08       VA508AccessibilityConst.Finalization
 0001:00001C10       HRParser.THRParser.GetSource
 0001:00001C18       HRParser.THRParser.SetSource
 0001:00001C20       HRParser.THRParser.NextToken
 0001:00001C28       HRParserPas.THRParserPas.Create
 0001:00001C30       Vcl.OleServer.Finalization
 0001:00001DA4       oleacc2..CoCAccPropServices
 0001:00001ED8       oleacc2.CoCAccPropServices.Create
 0001:00001F48       oleacc2.CoCAccPropServices.CreateRemote
 0001:00001FD4       oleacc2.Finalization
 0001:00001FDC       MSAAConstants.Finalization
 0001:000021D4       VA508MSAASupport..TImageEventData
 0001:000022B0       VA508MSAASupport..TListProcData
 0001:0000236C       VA508MSAASupport..TProcData
 0001:00002574       VA508MSAASupport..TMSAAServer
 0001:00002A18       VA508MSAASupport.NotifyEvent
 0001:00002ACC       VA508MSAASupport.IncAccServices
 0001:00002B68       VA508MSAASupport.DecAccServices
 0001:00002B90       VA508MSAASupport.Cleanup
 0001:00002BB4       VA508MSAASupport.FindServer
 0001:00002C80       VA508MSAASupport.RegisterComponentImageListQueryEvent
 0001:00002D74       VA508MSAASupport.UnregisterComponentImageListQueryEvent
 0001:00002E40       VA508MSAASupport.RegisterMSAAComponentQueryProc
 0001:00002F2C       VA508MSAASupport.UnregisterMSAAComponentQueryProc
 0001:00002FEC       VA508MSAASupport.RegisterMSAAComponentListQueryProc
 0001:000030D8       VA508MSAASupport.UnregisterMSAAComponentListQueryProc
 0001:00003198       VA508MSAASupport.TMSAAServer.AddImageEvent
 0001:00003214       VA508MSAASupport.TMSAAServer.AddListProc
 0001:00003268       VA508MSAASupport.TMSAAServer.AddProc
 0001:000032BC       VA508MSAASupport.TMSAAServer.AssignServerType
 0001:000032EC       VA508MSAASupport.TMSAAServer.Attach
 0001:00003354       VA508MSAASupport.TMSAAServer.Create
 0001:000033CC       VA508MSAASupport.TMSAAServer.Destroy
 0001:00003418       VA508MSAASupport.TMSAAServer.Detatch
 0001:0000349C       VA508MSAASupport.TMSAAServer.EventCount
 0001:000034B8       VA508MSAASupport.TMSAAServer.ImageEventIndex
 0001:00003540       VA508MSAASupport.TMSAAServer.ListProcIndex
 0001:000035BC       VA508MSAASupport.TMSAAServer.GetComponent
 0001:000035D8       VA508MSAASupport.Append
 0001:000036B4       VA508MSAASupport.GetImageLabelText
 0001:00003760       VA508MSAASupport.DoTreeView
 0001:000038D8       VA508MSAASupport.DoListView
 0001:00003C6C       VA508MSAASupport.DoListComponent
 0001:00003CEC       VA508MSAASupport.DoNormalComponent
 0001:00003D68       VA508MSAASupport.HasProperty
 0001:00003D90       VA508MSAASupport.NoProperty
 0001:00003DAC       VA508MSAASupport.TMSAAServer.GetPropValue
 0001:00003F74       VA508MSAASupport.TMSAAServer.Hook
 0001:00003FA8       VA508MSAASupport.TMSAAServer.RemoveImageEvent
 0001:00003FEC       VA508MSAASupport.TMSAAServer.RemoveListProc
 0001:00004028       VA508MSAASupport.TMSAAServer.RemoveProc
 0001:00004064       VA508MSAASupport.TMSAAServer.ValidateServerType
 0001:0000411C       VA508MSAASupport.TMSAAServer.UnassignServerType
 0001:0000414C       VA508MSAASupport.TMSAAServer.UnHook
 0001:0000416C       VA508MSAASupport.TMSAAServer.MSAAWindowProc
 0001:000041B0       VA508MSAASupport.TMSAAServer.ProcIndex
 0001:00004248       VA508MSAASupport.Finalization
 0001:00004484       VA508ScreenReaderDLLLinker.Initialize
 0001:000044A0       VA508ScreenReaderDLLLinker.ShutDown
 0001:000044B0       VA508ScreenReaderDLLLinker.RegisterCustomBehavior
 0001:000044C0       VA508ScreenReaderDLLLinker.ComponentData
 0001:000044D0       VA508ScreenReaderDLLLinker.SpeakText
 0001:000044E0       VA508ScreenReaderDLLLinker.IsRunning
 0001:000044FC       VA508ScreenReaderDLLLinker.FindJaws
 0001:00004518       VA508ScreenReaderDLLLinker.ConfigChangePending
 0001:00004530       VA508ScreenReaderDLLLinker.ClearProcPointers
 0001:00004570       VA508ScreenReaderDLLLinker.InitializeScreenReaderLink
 0001:000045B8       VA508ScreenReaderDLLLinker.CloseScreenReaderLink
 0001:000045E4       VA508ScreenReaderDLLLinker.LoadScreenReader
 0001:000047B8       VA508ScreenReaderDLLLinker.CheckForJaws
 0001:000048AC       VA508ScreenReaderDLLLinker.CheckRunning
 0001:0000490C       VA508ScreenReaderDLLLinker.CheckProcs
 0001:00004B18       VA508ScreenReaderDLLLinker.CheckFile
 0001:00004C0C       VA508ScreenReaderDLLLinker.ScanScreenReaders
 0001:00004DF8       VA508ScreenReaderDLLLinker.FindScreenReaders
 0001:00004EBC       VA508ScreenReaderDLLLinker.ScreenReaderDLLsExist
 0001:00004EDC       VA508ScreenReaderDLLLinker.IsScreenReaderSupported
 0001:00004F78       VA508ScreenReaderDLLLinker.Finalization
 0001:00005168       VA508AccessibilityRouter..TVA508ScreenReader
 0001:00005364       VA508AccessibilityRouter.TVA508ScreenReader.Speak
 0001:0000536C       VA508AccessibilityRouter.TVA508ScreenReader.RegisterDictionaryChange
 0001:00005374       VA508AccessibilityRouter.TVA508ScreenReader.RegisterCustomKeyMapping
 0001:0000537C       VA508AccessibilityRouter..TNullScreenReader
 0001:000056DC       VA508AccessibilityRouter..TMasterScreenReader
 0001:00005B90       VA508AccessibilityRouter.VA508RouterInitProc
 0001:00005BD0       VA508AccessibilityRouter.GetScreenReader
 0001:00005C24       VA508AccessibilityRouter.PostScreenReaderCheckEvent
 0001:00006130       VA508AccessibilityRouter.CreateTimer
 0001:00006194       VA508AccessibilityRouter.ScreenReaderSystemActive
 0001:00006288       VA508AccessibilityRouter.SpecifyFormIsNotADialog
 0001:00006348       VA508AccessibilityRouter.TMasterScreenReader.AddComponentDataNeededEventHandler
 0001:00006364       VA508AccessibilityRouter.TMasterScreenReader.Create
 0001:000063E0       VA508AccessibilityRouter.Decode
 0001:00006488       VA508AccessibilityRouter.TMasterScreenReader.DecodeBehavior
 0001:00006594       VA508AccessibilityRouter.TMasterScreenReader.Destroy
 0001:000065EC       VA508AccessibilityRouter.Coded
 0001:00006710       VA508AccessibilityRouter.TMasterScreenReader.EncodeBehavior
 0001:000067BC       VA508AccessibilityRouter.TMasterScreenReader.HandleSRException
 0001:00006824       VA508AccessibilityRouter.TMasterScreenReader.ProcessCustomKeyCommand
 0001:00006868       VA508AccessibilityRouter.TMasterScreenReader.RegisterClassAsMSAA
 0001:000068D0       VA508AccessibilityRouter.TMasterScreenReader.RegisterCustomBehavior
 0001:00006A04       VA508AccessibilityRouter.TMasterScreenReader.RegisterCustomClassBehavior
 0001:00006A7C       VA508AccessibilityRouter.EnumResNameProc
 0001:00006ADC       VA508AccessibilityRouter.EnsureDialogAreSpecified
 0001:00006D28       VA508AccessibilityRouter.TMasterScreenReader.RegisterCustomData
 0001:00006E90       VA508AccessibilityRouter.AddDescription
 0001:00006FFC       VA508AccessibilityRouter.TMasterScreenReader.RegisterCustomKeyMapping
 0001:000070EC       VA508AccessibilityRouter.TMasterScreenReader.RegisterDictionaryChange
 0001:00007154       VA508AccessibilityRouter.TMasterScreenReader.RegistrationAllowed
 0001:00007184       VA508AccessibilityRouter.TMasterScreenReader.RemoveComponentDataNeededEventHandler
 0001:000071A0       VA508AccessibilityRouter.TMasterScreenReader.Speak
 0001:00007248       VA508AccessibilityRouter.ComponentDataRequested
 0001:00007384       VA508AccessibilityRouter.TNullScreenReader.AddComponentDataNeededEventHandler
 0001:00007390       VA508AccessibilityRouter.TNullScreenReader.RegisterClassAsMSAA
 0001:000073D4       VA508AccessibilityRouter.TNullScreenReader.RegisterCustomClassBehavior
 0001:00007428       VA508AccessibilityRouter.TNullScreenReader.RegisterCustomKeyMapping
 0001:00007490       VA508AccessibilityRouter.TNullScreenReader.RegisterDictionaryChange
 0001:000074E4       VA508AccessibilityRouter.TNullScreenReader.RemoveComponentDataNeededEventHandler
 0001:000074F0       VA508AccessibilityRouter.TNullScreenReader.Speak
 0001:00007534       VA508AccessibilityRouter.Finalization
 0001:0000757C       VA508ImageListLabeler..TVA508ImageListLabel
 0001:000077E8       VA508ImageListLabeler..TVA508ImageListLabels
 0001:00007ABC       VA508ImageListLabeler..TVA508ImageListComponent
 0001:00007CAC       VA508ImageListLabeler..TVA508ImageListComponents
 0001:00007F14       VA508ImageListLabeler..TVA508ImageListLabeler
 0001:0000827C       VA508ImageListLabeler.Register
 0001:000082B8       VA508ImageListLabeler.TVA508ImageListLabeler.ComponentImageListChanged
 0001:000082CC       VA508ImageListLabeler.TVA508ImageListLabeler.Create
 0001:0000838C       VA508ImageListLabeler.TVA508ImageListLabeler.Destroy
 0001:00008414       VA508ImageListLabeler.TVA508ImageListLabeler.ImageIndexQuery
 0001:000084F4       VA508ImageListLabeler.TVA508ImageListLabeler.ImageListChange
 0001:000085A0       VA508ImageListLabeler.TVA508ImageListLabeler.ItemChanged
 0001:000085D4       VA508ImageListLabeler.TVA508ImageListLabeler.Loaded
 0001:00008604       VA508ImageListLabeler.TVA508ImageListLabeler.SaveChanges
 0001:00008790       VA508ImageListLabeler.TVA508ImageListLabeler.Notification
 0001:000087CC       VA508ImageListLabeler.TVA508ImageListLabeler.SetImageList
 0001:000089A4       VA508ImageListLabeler.TVA508ImageListLabeler.SetRemoteLabeler
 0001:000089E4       VA508ImageListLabeler.TVA508ImageListLabels.Add
 0001:00008A00       VA508ImageListLabeler.TVA508ImageListLabels.Create
 0001:00008B4C       VA508ImageListLabeler.TVA508ImageListLabels.Destroy
 0001:00008BA8       VA508ImageListLabeler.TVA508ImageListLabels.GetAttr
 0001:00008BD0       VA508ImageListLabeler.TVA508ImageListLabels.GetAttrCount
 0001:00008BF0       VA508ImageListLabeler.TVA508ImageListLabels.GetImageData
 0001:00008C90       VA508ImageListLabeler.TVA508ImageListLabels.GetItem
 0001:00008CB4       VA508ImageListLabeler.TVA508ImageListLabels.GetItemAttr
 0001:00008D94       VA508ImageListLabeler.TVA508ImageListLabels.GetOverlayData
 0001:00008E40       VA508ImageListLabeler.TVA508ImageListLabels.GetOwner
 0001:00008E5C       VA508ImageListLabeler.TVA508ImageListLabels.Notify
 0001:00008E88       VA508ImageListLabeler.TVA508ImageListLabels.ResetData
 0001:00008EB0       VA508ImageListLabeler.TVA508ImageListLabels.SetItem
 0001:00008ED4       VA508ImageListLabeler.TVA508ImageListLabels.Update
 0001:00008EF8       VA508ImageListLabeler.TVA508ImageListLabel.Assign
 0001:00008F4C       VA508ImageListLabeler.TVA508ImageListLabel.Changed
 0001:00008F64       VA508ImageListLabeler.TVA508ImageListLabel.Create
 0001:00008FC0       VA508ImageListLabeler.TVA508ImageListLabel.Destroy
 0001:00008FF4       VA508ImageListLabeler.TVA508ImageListLabel.Labeler
 0001:00009020       VA508ImageListLabeler.TVA508ImageListLabel.Refresh
 0001:00009038       VA508ImageListLabeler.TVA508ImageListLabel.SetCaption
 0001:0000907C       VA508ImageListLabeler.TVA508ImageListLabel.SetImageIndex
 0001:00009124       VA508ImageListLabeler.TVA508ImageListLabel.SetOverlayIndex
 0001:00009154       VA508ImageListLabeler.TVA508ImageListComponents.Add
 0001:00009170       VA508ImageListLabeler.TVA508ImageListComponents.Create
 0001:000091C4       VA508ImageListLabeler.TVA508ImageListComponents.Destroy
 0001:00009200       VA508ImageListLabeler.TVA508ImageListComponents.GetItem
 0001:00009224       VA508ImageListLabeler.TVA508ImageListComponents.GetOwner
 0001:00009240       VA508ImageListLabeler.TVA508ImageListComponents.Notify
 0001:00009270       VA508ImageListLabeler.TVA508ImageListComponents.SetItem
 0001:00009294       VA508ImageListLabeler.TVA508ImageListComponent.Assign
 0001:000092D8       VA508ImageListLabeler.TVA508ImageListComponent.ComponentNotifyEvent
 0001:0000930C       VA508ImageListLabeler.TVA508ImageListComponent.Destroy
 0001:0000935C       VA508ImageListLabeler.TVA508ImageListComponent.GetDisplayName
 0001:0000941C       VA508ImageListLabeler.TVA508ImageListComponent.ImageListTypes
 0001:00009528       VA508ImageListLabeler.TVA508ImageListComponent.Labeler
 0001:00009554       VA508ImageListLabeler.TVA508ImageListComponent.SetComponent
 0001:000096E0       VA508ImageListLabeler.Finalization
 0001:000096E8       VA508Classes..TFormData
 0001:00009A5C       VA508Classes..EVA508AccessibilityException
 0001:00009BE8       VA508Classes..TParentChildFormTracker
 0001:0000A078       VA508Classes..TVA508Parser
 0001:0000A354       VA508Classes.HasAnotherAccessibilityManager
 0001:0000A3D8       VA508Classes.EnsureManager
 0001:0000A574       VA508Classes.VA508ComponentCreationCheck
 0001:0000A920       VA508Classes.VA508ComponentDestructionCheck
 0001:0000ABE8       VA508Classes.TFormData.HasManager
 0001:0000AC04       VA508Classes.TFormData.HasParent
 0001:0000AC20       VA508Classes.TFormData.SetFormClassName
 0001:0000AC88       VA508Classes.TParentChildFormTracker.AddForm
 0001:0000AD64       VA508Classes.TParentChildFormTracker.AddLink
 0001:0000ADE8       VA508Classes.TParentChildFormTracker.Clear
 0001:0000AE00       VA508Classes.TParentChildFormTracker.Create
 0001:0000AE4C       VA508Classes.TParentChildFormTracker.Destroy
 0001:0000AE88       VA508Classes.TParentChildFormTracker.FindForm
 0001:0000AF34       VA508Classes.TParentChildFormTracker.FormCount
 0001:0000AF50       VA508Classes.TParentChildFormTracker.GetFormData
 0001:0000AF74       VA508Classes.TParentChildFormTracker.ParentChildErrorDescription
 0001:0000B704       VA508Classes.TParentChildFormTracker.ParentChildErrorStatus
 0001:0000B830       VA508Classes.TVA508Parser.GetParentClassName
 0001:0000B9EC       VA508Classes.TVA508Parser.LastLineRead
 0001:0000BA08       VA508Classes.TVA508Parser.LastPosition
 0001:0000BA24       VA508Classes.IgnoreToken
 0001:0000BA60       VA508Classes.InvalidSection
 0001:0000BB38       VA508Classes.TVA508Parser.ParseToken
 0001:0000BDB0       VA508Classes.Finalization
 0001:0000BDB8       Vcl.CheckLst.TCheckListBox.Destroy@
 0001:0000BDC0       Vcl.CheckLst.TCheckListBox.GetChecked
 0001:0000BDC8       Vcl.CheckLst.TCheckListBox.GetState
 0001:0000BDD0       Vcl.Grids.TCustomGrid.Destroy@
 0001:0000BDD8       Vcl.Grids.TCustomDrawGrid.Destroy@
 0001:0000BDE0       Vcl.Grids.TStringGrid.Destroy@
 0001:0000BDE8       Vcl.Grids.TDrawGrid.Destroy@
 0001:0000BDF0       Data.SqlTimSt.Finalization
 0001:0000BDF8       Data.FmtBcd.Finalization
 0001:0000BE00       Data.DB.Finalization
 0001:0000BE08       Vcl.DBLogDlg.Finalization
 0001:0000BE10       Vcl.DBPWDlg.Finalization
 0001:0000BE18       Vcl.DBCtrls.TDBMemo.Destroy@
 0001:0000BE20       Vcl.DBCtrls.TDBLookupListBox.Destroy@
 0001:0000BE28       Vcl.DBCtrls.TCustomDBLookupComboBox.Destroy@
 0001:0000BE30       Vcl.DBCtrls.TDBLookupComboBox.Destroy@
 0001:0000BE38       Vcl.DBCtrls.Finalization
 0001:0000BE40       Vcl.DBGrids.TCustomDBGrid.Destroy@
 0001:0000BE48       Vcl.DBGrids.TDBGrid.Destroy@
 0001:0000BE50       VA508DelphiCompatibility..TVA508StaticTextManager
 0001:0000C080       VA508DelphiCompatibility..TCheckBox508Manager
 0001:0000C2B0       VA508DelphiCompatibility..TCheckListBox508Manager
 0001:0000C52C       VA508DelphiCompatibility..TVA508EditManager
 0001:0000C6AC       VA508DelphiCompatibility..TVA508ComboManager
 0001:0000C830       VA508DelphiCompatibility..TCustomGrid508Manager
 0001:0000CAA8       VA508DelphiCompatibility.Append
 0001:0000CB4C       VA508DelphiCompatibility.AppendHeader
 0001:0000CBD4       VA508DelphiCompatibility.ListViewIndexQueryProc
 0001:0000CDC0       VA508DelphiCompatibility.RegisterStandardDelphiComponents
 0001:0000CF08       VA508DelphiCompatibility.CustomComboAlternateHandle
 0001:0000CF24       VA508DelphiCompatibility.GetCheckBoxComponentName
 0001:0000CFB0       VA508DelphiCompatibility.GetCheckBoxInstructionMessage
 0001:0000D078       VA508DelphiCompatibility.GetCheckBoxStateText
 0001:0000D13C       VA508DelphiCompatibility.TCheckBox508Manager.Create
 0001:0000D190       VA508DelphiCompatibility.TCheckBox508Manager.GetComponentName
 0001:0000D1B4       VA508DelphiCompatibility.TCheckBox508Manager.GetInstructions
 0001:0000D1DC       VA508DelphiCompatibility.TCheckBox508Manager.GetState
 0001:0000D200       VA508DelphiCompatibility.TCheckListBox508Manager.Create
 0001:0000D254       VA508DelphiCompatibility.TCheckListBox508Manager.GetComponentName
 0001:0000D308       VA508DelphiCompatibility.TCheckListBox508Manager.GetItemInstructions
 0001:0000D354       VA508DelphiCompatibility.TCheckListBox508Manager.GetIndex
 0001:0000D3AC       VA508DelphiCompatibility.TCheckListBox508Manager.GetItem
 0001:0000D3F0       VA508DelphiCompatibility.TCheckListBox508Manager.GetState
 0001:0000D43C       VA508DelphiCompatibility.TCustomGrid508Manager.Create
 0001:0000D490       VA508DelphiCompatibility.TCustomGrid508Manager.GetComponentName
 0001:0000D4CC       VA508DelphiCompatibility.TCustomGrid508Manager.GetInstructions
 0001:0000D5B0       VA508DelphiCompatibility.TCustomGrid508Manager.GetItem
 0001:0000D614       VA508DelphiCompatibility.TCustomGrid508Manager.GetValue
 0001:0000D8D4       VA508DelphiCompatibility.TVA508StaticTextManager.Create
 0001:0000D928       VA508DelphiCompatibility.TVA508StaticTextManager.GetCaption
 0001:0000D958       VA508DelphiCompatibility.TVA508StaticTextManager.GetComponentName
 0001:0000D990       VA508DelphiCompatibility.TVA508StaticTextManager.GetValue
 0001:0000DA40       VA508DelphiCompatibility.TVA508EditManager.Create
 0001:0000DA94       VA508DelphiCompatibility.TVA508EditManager.GetValue
 0001:0000DAB4       VA508DelphiCompatibility.TVA508ComboManager.Create
 0001:0000DB08       VA508DelphiCompatibility.TVA508ComboManager.GetValue
 0001:0000DB28       VA508DelphiCompatibility.Finalization
 0001:0000DBA0       VA508AccessibilityManager..TVA508AccessibilityItem
 0001:0000DFB0       VA508AccessibilityManager..TVA508AccessibilityCollection
 0001:0000E2CC       VA508AccessibilityManager..TVA508AccessibilityManager
 0001:0000E9B8       VA508AccessibilityManager..TVA508ComponentAccessibility
 0001:0000EF98       VA508AccessibilityManager..TVA508ComponentManager
 0001:0000F6CC       VA508AccessibilityManager.TVA508ComponentManager.Create
 0001:0000F6D4       VA508AccessibilityManager..TVA508ChainedLabel
 0001:0000F8C4       VA508AccessibilityManager..TVA508StaticText
 0001:0000FD0C       VA508AccessibilityManager..TVA508SilentComponent
 0001:0000FFA0       VA508AccessibilityManager..TVA508ManagedComponentClass
 0001:00010130       VA508AccessibilityManager..TVA508ComplexComponentManager
 0001:00010440       VA508AccessibilityManager.TVA508ComplexComponentManager.Refresh
 0001:00010524       VA508AccessibilityManager..TComponentHelper
 0001:00010E74       VA508AccessibilityManager..TVAGlobalComponentRegistry
 0001:00011238       VA508AccessibilityManager..TDFMData
 0001:00011378       VA508AccessibilityManager..TMSAAData
 0001:00011460       VA508AccessibilityManager.CreateGlobalRegistry
 0001:00011488       VA508AccessibilityManager.CreateGlobalVars
 0001:000114AC       VA508AccessibilityManager.FreeGlobalVars
 0001:00011524       VA508AccessibilityManager.TVA508AccessibilityItem.Assign
 0001:000115B8       VA508AccessibilityManager.TVA508AccessibilityItem.Create
 0001:00011600       VA508AccessibilityManager.TVA508AccessibilityItem.Destroy
 0001:00011658       VA508AccessibilityManager.TVA508AccessibilityItem.GetDisplayName
 0001:00011720       VA508AccessibilityManager.TVA508AccessibilityItem.InitComponent
 0001:00011758       VA508AccessibilityManager.TVA508AccessibilityItem.Manager
 0001:00011774       VA508AccessibilityManager.TVA508AccessibilityItem.Parent
 0001:00011790       VA508AccessibilityManager.TVA508AccessibilityItem.SetComponent
 0001:0001181C       VA508AccessibilityManager.TVA508AccessibilityItem.SetDefault
 0001:000118D4       VA508AccessibilityManager.TVA508AccessibilityItem.SetLabel
 0001:00011920       VA508AccessibilityManager.TVA508AccessibilityItem.SetProperty
 0001:000119A0       VA508AccessibilityManager.TVA508AccessibilityItem.SetText
 0001:000119F4       VA508AccessibilityManager.TVA508AccessibilityItem.UpdateStatus
 0001:00011A5C       VA508AccessibilityManager.TVA508AccessibilityCollection.Add
 0001:00011A78       VA508AccessibilityManager.TVA508AccessibilityCollection.ComponentNotifyEvent
 0001:00011AD8       VA508AccessibilityManager.TVA508AccessibilityCollection.Create
 0001:00011B74       VA508AccessibilityManager.TVA508AccessibilityCollection.Destroy
 0001:00011BCC       VA508AccessibilityManager.TVA508AccessibilityCollection.EnsureItemExists
 0001:00011BEC       VA508AccessibilityManager.TVA508AccessibilityCollection.FindItem
 0001:00011CA0       VA508AccessibilityManager.TVA508AccessibilityCollection.GetItem
 0001:00011CC4       VA508AccessibilityManager.TVA508AccessibilityCollection.GetOwner
 0001:00011CE0       VA508AccessibilityManager.TVA508AccessibilityCollection.IsComponentRegistered
 0001:00011D50       VA508AccessibilityManager.TVA508AccessibilityCollection.UnregisterComponent
 0001:00011DEC       VA508AccessibilityManager.TVA508AccessibilityCollection.SetItem
 0001:00011E10       VA508AccessibilityManager.TVA508AccessibilityCollection.RegisterComponent
 0001:00011EBC       VA508AccessibilityManager.TVA508AccessibilityManager.Create
 0001:00011F34       VA508AccessibilityManager.TVA508AccessibilityManager.Destroy
 0001:00011F98       VA508AccessibilityManager.FindOwnedComponent
 0001:00012048       VA508AccessibilityManager.TVA508AccessibilityManager.FindComponentOnForm
 0001:00012150       VA508AccessibilityManager.TVA508AccessibilityManager.GetAccessLabel
 0001:0001217C       VA508AccessibilityManager.TVA508AccessibilityManager.GetAccessProperty
 0001:000121AC       VA508AccessibilityManager.TVA508AccessibilityManager.GetAccessText
 0001:000121DC       VA508AccessibilityManager.TVA508AccessibilityManager.GetComponentManager
 0001:00012208       VA508AccessibilityManager.error
 0001:00012278       VA508AccessibilityManager.BasicComponentCheck
 0001:0001230C       VA508AccessibilityManager.TVA508AccessibilityManager.GetComponentName
 0001:000123A0       VA508AccessibilityManager.TVA508AccessibilityManager.GetData
 0001:000123BC       VA508AccessibilityManager.TVA508AccessibilityManager.GetDefaultStringProperty
 0001:0001248C       VA508AccessibilityManager.AddLabels
 0001:000125CC       VA508AccessibilityManager.TVA508AccessibilityManager.GetLabelStrings
 0001:000125F4       VA508AccessibilityManager.TVA508AccessibilityManager.GetProperties
 0001:0001261C       VA508AccessibilityManager.TVA508AccessibilityManager.GetPropertList
 0001:000127D0       VA508AccessibilityManager.TVA508AccessibilityManager.GetRootComponent
 0001:000128DC       VA508AccessibilityManager.TVA508AccessibilityManager.GetUseDefault
 0001:00012908       VA508AccessibilityManager.TVA508AccessibilityManager.IsPropertyNameValid
 0001:0001297C       VA508AccessibilityManager.TVA508AccessibilityManager.Loaded
 0001:00012AC8       VA508AccessibilityManager.UpdateComponent
 0001:00012B88       VA508AccessibilityManager.TVA508AccessibilityManager.Notification
 0001:00012BEC       VA508AccessibilityManager.TVA508AccessibilityManager.OwnerCheck
 0001:00012C30       VA508AccessibilityManager.TVA508AccessibilityManager.DefineProperties
 0001:00012C88       VA508AccessibilityManager.TVA508AccessibilityManager.ReadData
 0001:00012F48       VA508AccessibilityManager.TVA508AccessibilityManager.RefreshComponents
 0001:00012F5C       VA508AccessibilityManager.TVA508AccessibilityManager.WriteData
 0001:000131E4       VA508AccessibilityManager.TVA508AccessibilityManager.ScreenReaderInquiry
 0001:0001335C       VA508AccessibilityManager.TVA508AccessibilityManager.SetAccessLabel
 0001:00013388       VA508AccessibilityManager.TVA508AccessibilityManager.SetAccessProperty
 0001:000133B4       VA508AccessibilityManager.TVA508AccessibilityManager.SetAccessText
 0001:000133E0       VA508AccessibilityManager.TVA508AccessibilityManager.SetComponentManager
 0001:0001340C       VA508AccessibilityManager.TVA508AccessibilityManager.SetUseDefault
 0001:00013438       VA508AccessibilityManager.Update
 0001:000134E4       VA508AccessibilityManager.TVA508AccessibilityManager.Initialize
 0001:00013618       VA508AccessibilityManager..TAlternateHandleData
 0001:0001370C       VA508AccessibilityManager.RegisterAlternateHandleComponent
 0001:000137B0       VA508AccessibilityManager.RegisterComplexComponentManager
 0001:00013844       VA508AccessibilityManager.RegisterManagedComponentClass
 0001:000138E0       VA508AccessibilityManager.FindMSAAQueryData
 0001:00013948       VA508AccessibilityManager.RegisterMSAAProc
 0001:000139C0       VA508AccessibilityManager.RegisterMSAAQueryClassProc
 0001:000139E0       VA508AccessibilityManager.RegisterMSAAQueryListClassProc
 0001:00013A00       VA508AccessibilityManager.HandleStillValid
 0001:00013A3C       VA508AccessibilityManager.NoChangeNeeded
 0001:00013AB8       VA508AccessibilityManager.Init
 0001:00013B0C       VA508AccessibilityManager.ProcessCaptionChange
 0001:00013BC8       VA508AccessibilityManager.ProcessItemChange
 0001:00013ECC       VA508AccessibilityManager.ProcessStateChange
 0001:00013F94       VA508AccessibilityManager.AddControlType
 0001:00014014       VA508AccessibilityManager.SendChangeData
 0001:00014078       VA508AccessibilityManager.TVAGlobalComponentRegistry.CheckForChangeEvent
 0001:00014144       VA508AccessibilityManager.HelperValid
 0001:000141F4       VA508AccessibilityManager.UpdateComponentData
 0001:000142EC       VA508AccessibilityManager.InitializeVars
 0001:00014398       VA508AccessibilityManager.GetDataValues
 0001:000145F8       VA508AccessibilityManager.TVAGlobalComponentRegistry.ComponentDataNeededEvent
 0001:00014818       VA508AccessibilityManager.GetMessageHookProc
 0001:000148C0       VA508AccessibilityManager.TVAGlobalComponentRegistry.Create
 0001:000149FC       VA508AccessibilityManager.TVAGlobalComponentRegistry.Destroy
 0001:00014A90       VA508AccessibilityManager.TVAGlobalComponentRegistry.GetCompKey
 0001:00014AB0       VA508AccessibilityManager.TVAGlobalComponentRegistry.GetComponentHandle
 0001:00014BB4       VA508AccessibilityManager.TVAGlobalComponentRegistry.GetFieldObject
 0001:00014C64       VA508AccessibilityManager.TVAGlobalComponentRegistry.GetComponentHelper
 0001:00014D24       VA508AccessibilityManager.TVAGlobalComponentRegistry.HasHandle
 0001:00014E38       VA508AccessibilityManager.TVAGlobalComponentRegistry.RegisterFieldObject
 0001:00014F38       VA508AccessibilityManager.TVAGlobalComponentRegistry.RegisterMSAA
 0001:00014F9C       VA508AccessibilityManager.CheckManagedClasses
 0001:00015068       VA508AccessibilityManager.CheckComplexClasses
 0001:000150F0       VA508AccessibilityManager.CreateHelper
 0001:00015190       VA508AccessibilityManager.RegisterComponent
 0001:000152BC       VA508AccessibilityManager.TVAGlobalComponentRegistry.RegisterComponent
 0001:00015324       VA508AccessibilityManager.SkipCheck
 0001:00015350       VA508AccessibilityManager.TVAGlobalComponentRegistry.TimerEvent
 0001:00015484       VA508AccessibilityManager.TVAGlobalComponentRegistry.UnregisterComponent
 0001:000155D0       VA508AccessibilityManager.TVAGlobalComponentRegistry.UnregisterMSAA
 0001:00015634       VA508AccessibilityManager.UpdateHandle
 0001:0001581C       VA508AccessibilityManager.FindRootHandle
 0001:000158B8       VA508AccessibilityManager.UpdateAllHandles
 0001:00015930       VA508AccessibilityManager.UpdateChildrenHandles
 0001:00015AC8       VA508AccessibilityManager.TVAGlobalComponentRegistry.UpdateHandles
 0001:00015B54       VA508AccessibilityManager.TVA508ComponentManager.Create
 0001:00015B9C       VA508AccessibilityManager.TVA508ComponentManager.GetCaption
 0001:00015BB8       VA508AccessibilityManager.TVA508ComponentManager.GetComponentName
 0001:00015BD4       VA508AccessibilityManager.TVA508ComponentManager.GetData
 0001:00015C24       VA508AccessibilityManager.TVA508ComponentManager.GetInstructions
 0001:00015C40       VA508AccessibilityManager.TVA508ComponentManager.GetItem
 0001:00015C58       VA508AccessibilityManager.TVA508ComponentManager.GetItemInstructions
 0001:00015C74       VA508AccessibilityManager.TVA508ComponentManager.GetState
 0001:00015C90       VA508AccessibilityManager.TVA508ComponentManager.GetValue
 0001:00015CAC       VA508AccessibilityManager.TVA508ComponentManager.ManageCaption
 0001:00015CCC       VA508AccessibilityManager.TVA508ComponentManager.ManageComponentName
 0001:00015CEC       VA508AccessibilityManager.TVA508ComponentManager.ManageData
 0001:00015D0C       VA508AccessibilityManager.TVA508ComponentManager.ManageInstructions
 0001:00015D2C       VA508AccessibilityManager.TVA508ComponentManager.ManageItemInstructions
 0001:00015D4C       VA508AccessibilityManager.TVA508ComponentManager.ManageState
 0001:00015D6C       VA508AccessibilityManager.TVA508ComponentManager.ManageValue
 0001:00015D8C       VA508AccessibilityManager.TVA508ComponentManager.MonitorForItemChange
 0001:00015DAC       VA508AccessibilityManager.TVA508ComponentManager.MonitorForStateChange
 0001:00015DCC       VA508AccessibilityManager.TVA508ComponentManager.Redirect
 0001:00015DF0       VA508AccessibilityManager.TVA508ComponentManager.RedirectsComponent
 0001:00015E10       VA508AccessibilityManager.TVA508ManagedComponentClass.Create
 0001:00015E6C       VA508AccessibilityManager.TVA508SilentComponent.GetComponentName
 0001:00015E9C       VA508AccessibilityManager.TVA508SilentComponent.GetInstructions
 0001:00015ECC       VA508AccessibilityManager.TVA508SilentComponent.GetState
 0001:00015EFC       VA508AccessibilityManager.TVA508SilentComponent.GetValue
 0001:00015F2C       VA508AccessibilityManager.TVA508ComponentAccessibility.Create
 0001:00015F88       VA508AccessibilityManager.TVA508ComponentAccessibility.SetComponent
 0001:00016190       VA508AccessibilityManager.InitializeComponentHelper
 0001:00016348       VA508AccessibilityManager.TComponentHelper.InitializeComponentManager
 0001:000163DC       VA508AccessibilityManager.TComponentHelper.ClearRedirect
 0001:00016400       VA508AccessibilityManager.TComponentHelper.Create
 0001:00016440       VA508AccessibilityManager.TComponentHelper.Destroy
 0001:000164C0       VA508AccessibilityManager.TComponentHelper.GetCaption
 0001:000165A8       VA508AccessibilityManager.TComponentHelper.GetComponentName
 0001:0001667C       VA508AccessibilityManager.TComponentHelper.GetData
 0001:00016738       VA508AccessibilityManager.TComponentHelper.GetInstructions
 0001:0001680C       VA508AccessibilityManager.TComponentHelper.GetItem
 0001:0001689C       VA508AccessibilityManager.TComponentHelper.GetItemInstructions
 0001:00016970       VA508AccessibilityManager.TComponentHelper.GetState
 0001:00016A58       VA508AccessibilityManager.TComponentHelper.GetValue
 0001:00016B04       VA508AccessibilityManager.TComponentHelper.ManageComponentName
 0001:00016B80       VA508AccessibilityManager.TComponentHelper.ManageData
 0001:00016BD4       VA508AccessibilityManager.TComponentHelper.ManageInstructions
 0001:00016C50       VA508AccessibilityManager.TComponentHelper.ManageItemInstructions
 0001:00016CCC       VA508AccessibilityManager.TComponentHelper.ManageValue
 0001:00016D3C       VA508AccessibilityManager.TComponentHelper.ManageCaption
 0001:00016DB8       VA508AccessibilityManager.TComponentHelper.MonitorForItemChange
 0001:00016E28       VA508AccessibilityManager.TComponentHelper.MonitorForStateChange
 0001:00016EB4       VA508AccessibilityManager.TComponentHelper.Redirect
 0001:00016EEC       VA508AccessibilityManager.TComponentHelper.StandardComponent
 0001:00016F18       VA508AccessibilityManager.TVA508StaticText.CMFontChanged
 0001:00016F3C       VA508AccessibilityManager.TVA508StaticText.CMTextChanged
 0001:00016F60       VA508AccessibilityManager.TVA508StaticText.Create
 0001:0001700C       VA508AccessibilityManager.TVA508StaticText.DeleteChain
 0001:000170E8       VA508AccessibilityManager.TVA508StaticText.Destroy
 0001:00017138       VA508AccessibilityManager.TVA508StaticText.DoEnter
 0001:00017174       VA508AccessibilityManager.TVA508StaticText.DoExit
 0001:000171B0       VA508AccessibilityManager.TVA508StaticText.GetAlignment
 0001:000171D4       VA508AccessibilityManager.TVA508StaticText.GetLabelCaption
 0001:000171F8       VA508AccessibilityManager.TVA508StaticText.GetRootName
 0001:00017218       VA508AccessibilityManager.TVA508StaticText.GetShowAccelChar
 0001:0001723C       VA508AccessibilityManager.TVA508StaticText.InvalidateAll
 0001:00017284       VA508AccessibilityManager.TVA508StaticText.Notification
 0001:000172D8       VA508AccessibilityManager.Init
 0001:00017338       VA508AccessibilityManager.InitDrawBorder
 0001:000173E8       VA508AccessibilityManager.DrawTop
 0001:00017450       VA508AccessibilityManager.DrawBottom
 0001:00017570       VA508AccessibilityManager.TVA508StaticText.Paint
 0001:0001759C       VA508AccessibilityManager.TVA508StaticText.SetAlignment
 0001:000175C0       VA508AccessibilityManager.TVA508StaticText.SetLabelCaption
 0001:00017638       VA508AccessibilityManager.TVA508StaticText.SetRootName
 0001:000176D0       VA508AccessibilityManager.TVA508StaticText.SetNextLabel
 0001:00017758       VA508AccessibilityManager.TVA508StaticText.SetParent
 0001:000177C4       VA508AccessibilityManager.TVA508StaticText.SetShowAccelChar
 0001:000177E8       VA508AccessibilityManager.TVA508StaticText.UpdateSize
 0001:00017878       VA508AccessibilityManager.TVA508ChainedLabel.Notification
 0001:000178E0       VA508AccessibilityManager.Init
 0001:00017940       VA508AccessibilityManager.DrawText
 0001:000179D0       VA508AccessibilityManager.InitDrawBorder
 0001:00017AB4       VA508AccessibilityManager.DrawPartials
 0001:00017B64       VA508AccessibilityManager.DrawTop
 0001:00017C04       VA508AccessibilityManager.DrawSides
 0001:00017C6C       VA508AccessibilityManager.DrawBottom
 0001:00017D30       VA508AccessibilityManager.TVA508ChainedLabel.Paint
 0001:00017D9C       VA508AccessibilityManager.TVA508ChainedLabel.SetNextLabel
 0001:00017E40       VA508AccessibilityManager..TComplexDataItem
 0001:00017FC4       VA508AccessibilityManager.TComplexDataItem.Create
 0001:00018038       VA508AccessibilityManager.TComplexDataItem.Destroy
 0001:00018080       VA508AccessibilityManager.TVA508ComplexComponentManager.AddSubControl
 0001:00018134       VA508AccessibilityManager.TVA508ComplexComponentManager.RemoveSubControl
 0001:000181C8       VA508AccessibilityManager.TVA508ComplexComponentManager.ClearSubControls
 0001:0001826C       VA508AccessibilityManager.TVA508ComplexComponentManager.Create
 0001:00018310       VA508AccessibilityManager.TVA508ComplexComponentManager.Destroy
 0001:00018370       VA508AccessibilityManager.TVA508ComplexComponentManager.GetSubComponentList
 0001:000183E0       VA508AccessibilityManager.TVA508ComplexComponentManager.GetSubControl
 0001:0001841C       VA508AccessibilityManager.TVA508ComplexComponentManager.IndexOfComponentItem
 0001:0001847C       VA508AccessibilityManager.TVA508ComplexComponentManager.IndexOfSubComponentXRef
 0001:000184DC       VA508AccessibilityManager.TVA508ComplexComponentManager.ComponentNotifyEvent
 0001:0001853C       VA508AccessibilityManager.TVA508ComplexComponentManager.SubComponentNotifyEvent
 0001:000185AC       VA508AccessibilityManager.TVA508ComplexComponentManager.SubControlCount
 0001:0001862C       VA508AccessibilityManager.Finalization
 0001:00018640       VA508AccessibilityCompileInfo..TfrmProgress
 0001:00018C7C       VA508AccessibilityCompileInfo.Hookup
 0001:00018D30       VA508AccessibilityCompileInfo.StartMonitor
 0001:00018DB8       VA508AccessibilityCompileInfo.StopMonitor
 0001:00018DD0       VA508AccessibilityCompileInfo.Update508Monitor
 0001:00018F70       VA508AccessibilityCompileInfo.TfrmProgress.btnReleaseClick
 0001:00018FB4       VA508AccessibilityCompileInfo.TfrmProgress.FormCreate
 0001:0001900C       VA508AccessibilityCompileInfo.Finalization
 0001:0001905C       Vcl.AxCtrls.Finalization
 0001:00019064       Vcl.AppEvnts.Finalization
 0001:0001906C       TreeIntf.Finalization
 0001:00019074       TopLevels.Finalization
 0001:0001907C       StFilSys.Finalization
 0001:00019084       IDEHelp.Finalization
 0001:0001908C       ComponentDesigner.Finalization
 0001:00019094       VCLEditors.Finalization
 0001:0001909C       DesignWindows.TDesignWindow.Create
 0001:000190A4       DesignWindows.TDesignWindow.Destroy
 0001:000190AC       DesignWindows.TDesignWindow.GetEditState
 0001:000190B4       DesignWindows.TDesignWindow.EditAction
 0001:000190BC       DesignWindows.TDesignWindow.WindowHide
 0001:000190C4       DesignWindows.TDesignWindow.WindowShow
 0001:000190CC       DesignWindows.TDesignWindow.ItemInserted
 0001:000190D4       DesignWindows.TDesignWindow.DesignerOpened
 0001:000190DC       DesignWindows.TDesignWindow.UniqueName
 0001:000190E4       ToolWnds.TToolbarDesignWindow.ResizeButtons
 0001:000190EC       ToolWnds.Finalization
 0001:000190F4       ColnEdit.ShowCollectionEditorClass
 0001:000190FC       ColnEdit.TCollectionProperty.Edit
 0001:00019104       ColnEdit.TCollectionProperty.GetAttributes
 0001:0001910C       ColnEdit.TCollectionProperty.GetEditorClass
 0001:00019114       ColnEdit.TCollectionProperty.GetColOptions
 0001:0001911C       ColnEdit.TCollectionEditor.ItemDeleted
 0001:00019124       ColnEdit.TCollectionEditor.DesignerClosed
 0001:0001912C       ColnEdit.TCollectionEditor.ItemsModified
 0001:00019134       ColnEdit.TCollectionEditor.SelectionChanged
 0001:0001913C       ColnEdit.TCollectionEditor.CanAdd
 0001:00019144       ColnEdit.Finalization
 0001:0001914C       VA508AccessibilityPE..TVA508AccessibilityManager4PE
 0001:00019254       VA508AccessibilityPE..TVA508AccessibilityPropertyMapper
 0001:0001944C       VA508AccessibilityPE..TVA508NestedPropertyEditor
 0001:000197BC       VA508AccessibilityPE..TVA508CollectionPropertyEditor
 0001:0001990C       VA508AccessibilityPE..TVA508AccessibilityLabelPropertyEditor
 0001:00019B88       VA508AccessibilityPE..TVA508AccessibilityPropertyPropertyEditor
 0001:00019E20       VA508AccessibilityPE..TVA508AccessibilityComponentPropertyEditor
 0001:00019F8C       VA508AccessibilityPE.GetAccessibilityManager
 0001:0001A070       VA508AccessibilityPE.AllComponentsHaveSameManager
 0001:0001A0D8       VA508AccessibilityPE.GetStringPropertyNames
 0001:0001A1BC       VA508AccessibilityPE.QVal
 0001:0001A240       VA508AccessibilityPE.StripQVal
 0001:0001A2D0       VA508AccessibilityPE.TVA508AccessibilityPropertyMapper.GetAttributes
 0001:0001A30C       VA508AccessibilityPE.TVA508AccessibilityPropertyMapper.GetProperties
 0001:0001A454       VA508AccessibilityPE.TVA508NestedPropertyEditor.AllEqual
 0001:0001A68C       VA508AccessibilityPE.TVA508NestedPropertyEditor.Create
 0001:0001A730       VA508AccessibilityPE.TVA508NestedPropertyEditor.Edit
 0001:0001A7B0       VA508AccessibilityPE.TVA508NestedPropertyEditor.GetAttributes
 0001:0001A814       VA508AccessibilityPE.TVA508NestedPropertyEditor.GetEditLimit
 0001:0001A850       VA508AccessibilityPE.TVA508NestedPropertyEditor.GetName
 0001:0001A870       VA508AccessibilityPE.TVA508NestedPropertyEditor.GetValue
 0001:0001AA2C       VA508AccessibilityPE.TVA508NestedPropertyEditor.GetValues
 0001:0001AC6C       VA508AccessibilityPE.TVA508NestedPropertyEditor.SetValue
 0001:0001AE30       VA508AccessibilityPE.TVA508CollectionPropertyEditor.GetColOptions
 0001:0001AE4C       VA508AccessibilityPE.TVA508AccessibilityLabelPropertyEditor.GetAttributes
 0001:0001AE6C       VA508AccessibilityPE.TVA508AccessibilityLabelPropertyEditor.GetManager
 0001:0001AEA4       VA508AccessibilityPE.TVA508AccessibilityLabelPropertyEditor.GetProperties
 0001:0001AEB0       VA508AccessibilityPE.TVA508AccessibilityLabelPropertyEditor.GetValue
 0001:0001AF54       VA508AccessibilityPE.TVA508AccessibilityLabelPropertyEditor.GetValues
 0001:0001B018       VA508AccessibilityPE.TVA508AccessibilityLabelPropertyEditor.SetValue
 0001:0001B070       VA508AccessibilityPE.TVA508AccessibilityPropertyPropertyEditor.AllEqual
 0001:0001B130       VA508AccessibilityPE.TVA508AccessibilityPropertyPropertyEditor.GetAttributes
 0001:0001B150       VA508AccessibilityPE.TVA508AccessibilityPropertyPropertyEditor.GetEditLimit
 0001:0001B168       VA508AccessibilityPE.TVA508AccessibilityPropertyPropertyEditor.GetManager
 0001:0001B1A0       VA508AccessibilityPE.TVA508AccessibilityPropertyPropertyEditor.GetRootComponent
 0001:0001B1C4       VA508AccessibilityPE.TVA508AccessibilityPropertyPropertyEditor.GetValue
 0001:0001B264       VA508AccessibilityPE.TVA508AccessibilityPropertyPropertyEditor.GetValues
 0001:0001B3E0       VA508AccessibilityPE.TVA508AccessibilityPropertyPropertyEditor.SetValue
 0001:0001B438       VA508AccessibilityPE.TVA508AccessibilityComponentPropertyEditor.GetAttributes
 0001:0001B458       VA508AccessibilityPE.Register
 0001:0001B5DC       VA508AccessibilityPE.Finalization
 0001:0001B70C       VA508AccessibilityCompiler..TVA508Compiler
 0001:0001B910       VA508AccessibilityCompiler.Register
 0001:0001B914       VA508AccessibilityCompiler.Unregister
 0001:0001B9B0       VA508AccessibilityCompiler.DLLUnload
 0001:0001B9D0       VA508AccessibilityCompiler.HaveMessageServices
 0001:0001BA0C       VA508AccessibilityCompiler.GetPluralStr
 0001:0001BA4C       VA508AccessibilityCompiler.ShowErrorMessage
 0001:0001BAF4       VA508AccessibilityCompiler.Do508Scan
 0001:0001BFF8       VA508AccessibilityCompiler.TVA508Compiler.BeforeCompile
 0001:0001C024       VA508AccessibilityCompiler.TVA508Compiler.BeforeCompile
 0001:0001C038       VA508AccessibilityCompiler.TVA508Compiler.AfterCompile
 0001:0001C048       VA508AccessibilityCompiler.TVA508Compiler.AfterCompile
 0001:0001C06C       VA508AccessibilityCompiler.TVA508Compiler.AfterCompile
 0001:0001C090       VA508AccessibilityCompiler.TVA508Compiler.CompileNA
 0001:0001C0BC       VA508AccessibilityCompiler.TVA508Compiler.Create
 0001:0001C11C       VA508AccessibilityCompiler.TVA508Compiler.Destroy
 0001:0001C158       VA508AccessibilityCompiler.TVA508Compiler.StopCompile
 0001:0001C16C       VA508AccessibilityCompiler.TVA508Compiler.startMessages
 0001:0001C1E8       VA508AccessibilityCompiler.MessageOK
 0001:0001C330       VA508AccessibilityCompiler.TVA508Compiler.stopMessages
 0001:0001C4EC       VA508AccessibilityCompiler.TVA508Compiler.UpdateMonitor
 0001:0001C580       VA508AccessibilityCompiler.TVA508Compiler.error
 0001:0001C650       VA508AccessibilityCompiler.TVA508Compiler.warning
 0001:0001C724       VA508AccessibilityCompiler.TVA508Compiler.msg
 0001:0001C780       VA508AccessibilityCompiler.TVA508Compiler.FileNotification
 0001:0001C7E0       VA508AccessibilityCompiler.TVA508Compiler.infoMessage
 0001:0001C8C4       VA508AccessibilityCompiler.IncCacheIndexes
 0001:0001C930       VA508AccessibilityCompiler.SetCacheSize
 0001:0001C98C       VA508AccessibilityCompiler.Add2Cache
 0001:0001CA00       VA508AccessibilityCompiler.GetDFMFileName
 0001:0001CA98       VA508AccessibilityCompiler.ValidObjectLine
 0001:0001CBF4       VA508AccessibilityCompiler.ValidateDFM
 0001:0001CC9C       VA508AccessibilityCompiler.GetComponentName
 0001:0001CD64       VA508AccessibilityCompiler.ClearWarningList
 0001:0001CDDC       VA508AccessibilityCompiler.GetWarningList
 0001:0001CE4C       VA508AccessibilityCompiler.GetManagerInfo
 0001:0001D1E8       VA508AccessibilityCompiler.ReportComponentWarnings
 0001:0001D330       VA508AccessibilityCompiler.InitCache
 0001:0001D5C4       VA508AccessibilityCompiler.FileLoaded
 0001:0001D764       VA508AccessibilityCompiler.DFMSuccessfullyLoaded
 0001:0001D850       VA508AccessibilityCompiler.ScanForErrors
 0001:0001DA50       VA508AccessibilityCompiler.ScanFormFiles
 0001:0001DB24       VA508AccessibilityCompiler.OpenEditor
 0001:0001DBBC       VA508AccessibilityCompiler.CloseEditor
 0001:0001DC44       VA508AccessibilityCompiler.AttemptAutoFix
 0001:0001E298       VA508AccessibilityCompiler.IsFileReadOnly
 0001:0001E2EC       VA508AccessibilityCompiler.HandleInheritenceProblems
 0001:0001E950       VA508AccessibilityCompiler.CloseModules
 0001:0001EAF4       VA508AccessibilityCompiler.LoadCacheFile
 0001:0001EE40       VA508AccessibilityCompiler.SaveCacheFile
 0001:0001F024       VA508AccessibilityCompiler.CreateResources
 0001:0001F214       VA508AccessibilityCompiler.DestroyResources
 0001:0001F2F8       VA508AccessibilityCompiler.Init
 0001:0001F35C       VA508AccessibilityCompiler.TVA508Compiler.ScanFor508Errors
 0001:0001F454       VA508AccessibilityCompiler.Finalization
 0001:0001F510       VA508ImageListLabelerPE..TfrmImageListEditor
 0001:0001F8B8       VA508ImageListLabelerPE..TVA508ImageListItemsProperty
 0001:0001FA3C       VA508ImageListLabelerPE..TVA508ImageListComponentEditor
 0001:0001FC10       VA508ImageListLabelerPE..TVA508ImageListComponentProperty
 0001:0001FE08       VA508ImageListLabelerPE..TVA508LabelerImageListProperty
 0001:0001FF60       VA508ImageListLabelerPE..TVA508LabelerRemoteLabelerProperty
 0001:000200E4       VA508ImageListLabelerPE.Register
 0001:000201EC       VA508ImageListLabelerPE.TfrmImageListEditor.Create
 0001:0002026C       VA508ImageListLabelerPE.TVA508ImageListItemsProperty.GetAttributes
 0001:000202C0       VA508ImageListLabelerPE.TVA508ImageListItemsProperty.GetEditorClass
 0001:000202D8       VA508ImageListLabelerPE.TfrmImageListEditor.Destroy
 0001:00020340       VA508ImageListLabelerPE.TfrmImageListEditor.ImageDataChanged
 0001:00020360       VA508ImageListLabelerPE.TfrmImageListEditor.ItemChange
 0001:000203B8       VA508ImageListLabelerPE.TfrmImageListEditor.IterateItems
 0001:0002048C       VA508ImageListLabelerPE.TfrmImageListEditor.GetImageList
 0001:000204E8       VA508ImageListLabelerPE.TfrmImageListEditor.GetSize
 0001:00020548       VA508ImageListLabelerPE.TfrmImageListEditor.RedrawImages
 0001:000207D8       VA508ImageListLabelerPE.TfrmImageListEditor.UpdateImages
 0001:00020918       VA508ImageListLabelerPE.TVA508ImageListComponentEditor.Edit
 0001:000209AC       VA508ImageListLabelerPE.TVA508ImageListComponentEditor.ExecuteVerb
 0001:000209D8       VA508ImageListLabelerPE.TVA508ImageListComponentEditor.GetVerb
 0001:00020A50       VA508ImageListLabelerPE.TVA508ImageListComponentEditor.GetVerbCount
 0001:00020A68       VA508ImageListLabelerPE.TVA508ImageListComponentProperty.FilterValues
 0001:00020B4C       VA508ImageListLabelerPE.TVA508ImageListComponentProperty.GetValue
 0001:00020C00       VA508ImageListLabelerPE.TVA508ImageListComponentProperty.GetValues
 0001:00020C40       VA508ImageListLabelerPE.TVA508ImageListComponentProperty.SetValue
 0001:00020CD8       VA508ImageListLabelerPE.TVA508LabelerImageListProperty.GetAttributes
 0001:00020D24       VA508ImageListLabelerPE.TVA508LabelerRemoteLabelerProperty.FilterValues
 0001:00020D6C       VA508ImageListLabelerPE.TVA508LabelerRemoteLabelerProperty.GetValues
 0001:00020DAC       VA508ImageListLabelerPE.Finalization
 0001:00021908       .VA508AccessXE3.@GetPackageInfoTable
 0001:00021910       .VA508AccessXE3.@PackageLoad
 0001:0002191C       .VA508AccessXE3.@PackageUnload
 0002:00000000       System.System
 0002:00000008       SysInit.SysInit
 0002:00000010       Winapi.Windows.Winapi.Windows
 0002:00000028       System.Internal.ExcUtils.System.Internal.ExcUtils
 0002:00000030       System.SysUtils.TLanguages.Create@
 0002:00000038       System.SysUtils.TEncoding.Create@
 0002:00000040       System.SysUtils.Exception.Create@
 0002:00000048       System.SysUtils.TOSVersion.Create@
 0002:00000050       System.SysUtils.System.SysUtils
 0002:00000058       System.VarUtils.System.VarUtils
 0002:00000060       System.Variants.System.Variants
 0002:00000068       System.Math.System.Math
 0002:00000070       System.TimeSpan.TTimeSpan.Create@
 0002:00000078       System.SyncObjs.System.SyncObjs
 0002:00000080       System.Generics.Defaults.TStringComparer.Create@
 0002:00000088       System.Generics.Defaults.TIStringComparer.Create@
 0002:00000090       System.Rtti.System.Rtti
 0002:00000098       System.TypInfo.System.TypInfo
 0002:000000A0       System.Classes.TObserverMapping.Create@
 0002:000000A8       System.Classes.TBinaryWriter.Create@
 0002:000000B0       System.Classes.TThread.Create@
 0002:000000B8       System.Classes.TComponent.Create@
 0002:000000C0       System.Classes.TLoginCredentialService.Create@
 0002:000000C8       System.Classes.System.Classes
 0002:000000D0       System.DateUtils.TTimeZone.Create@
 0002:000000D8       System.IOUtils.TPath.Create@
 0002:000000E0       System.IOUtils.System.IOUtils
 0002:000000E8       System.Win.Registry.TRegistry.Create@
 0002:000000F0       Vcl.Graphics.Vcl.Graphics
 0002:000000F8       System.Actions.System.Actions
 0002:00000100       Vcl.ActnList.Vcl.ActnList
 0002:00000108       System.HelpIntfs.System.HelpIntfs
 0002:00000110       Winapi.UxTheme.Winapi.UxTheme
 0002:00000118       Vcl.GraphUtil.Vcl.GraphUtil
 0002:00000120       Vcl.StdCtrls.TCustomGroupBox.Create@
 0002:00000128       Vcl.StdCtrls.TCustomEdit.Create@
 0002:00000130       Vcl.StdCtrls.TCustomMemo.Create@
 0002:00000138       Vcl.StdCtrls.TCustomComboBox.Create@
 0002:00000140       Vcl.StdCtrls.TCustomButton.Create@
 0002:00000148       Vcl.StdCtrls.TCustomCheckBox.Create@
 0002:00000150       Vcl.StdCtrls.TRadioButton.Create@
 0002:00000158       Vcl.StdCtrls.TCustomListBox.Create@
 0002:00000160       Vcl.StdCtrls.TScrollBar.Create@
 0002:00000168       Vcl.StdCtrls.TCustomStaticText.Create@
 0002:00000170       Vcl.StdCtrls.TGroupBox.Create@
 0002:00000178       Vcl.StdCtrls.TEdit.Create@
 0002:00000180       Vcl.StdCtrls.TMemo.Create@
 0002:00000188       Vcl.StdCtrls.TComboBox.Create@
 0002:00000190       Vcl.StdCtrls.TButton.Create@
 0002:00000198       Vcl.StdCtrls.TCheckBox.Create@
 0002:000001A0       Vcl.StdCtrls.TListBox.Create@
 0002:000001A8       Vcl.StdCtrls.TStaticText.Create@
 0002:000001B0       Vcl.Printers.Vcl.Printers
 0002:000001B8       Vcl.Clipbrd.Vcl.Clipbrd
 0002:000001C0       Vcl.ComCtrls.TCustomTabControl.Create@
 0002:000001C8       Vcl.ComCtrls.TTabControl.Create@
 0002:000001D0       Vcl.ComCtrls.TCustomStatusBar.Create@
 0002:000001D8       Vcl.ComCtrls.TCustomHeaderControl.Create@
 0002:000001E0       Vcl.ComCtrls.TCustomTreeView.Create@
 0002:000001E8       Vcl.ComCtrls.TTreeView.Create@
 0002:000001F0       Vcl.ComCtrls.TTrackBar.Create@
 0002:000001F8       Vcl.ComCtrls.TProgressBar.Create@
 0002:00000200       Vcl.ComCtrls.TCustomRichEdit.Create@
 0002:00000208       Vcl.ComCtrls.TRichEdit.Create@
 0002:00000210       Vcl.ComCtrls.TCustomUpDown.Create@
 0002:00000218       Vcl.ComCtrls.TUpDown.Create@
 0002:00000220       Vcl.ComCtrls.TCustomHotKey.Create@
 0002:00000228       Vcl.ComCtrls.THotKey.Create@
 0002:00000230       Vcl.ComCtrls.TCustomListView.Create@
 0002:00000238       Vcl.ComCtrls.TListView.Create@
 0002:00000240       Vcl.ComCtrls.TToolBar.Create@
 0002:00000248       Vcl.ComCtrls.TCoolBar.Create@
 0002:00000250       Vcl.ComCtrls.TDateTimePicker.Create@
 0002:00000258       Vcl.ComCtrls.TPageScroller.Create@
 0002:00000260       Vcl.ComCtrls.TCustomComboBoxEx.Create@
 0002:00000268       Vcl.ComCtrls.TComboBoxEx.Create@
 0002:00000270       Vcl.ComCtrls.TStatusBar.Create@
 0002:00000278       Vcl.ComCtrls.THeaderControl.Create@
 0002:00000280       Vcl.ComCtrls.Vcl.ComCtrls
 0002:00000288       Vcl.Dialogs.Vcl.Dialogs
 0002:00000290       Vcl.ExtCtrls.TCustomCategoryPanelGroup.Create@
 0002:00000298       Vcl.ExtCtrls.TCategoryPanelGroup.Create@
 0002:000002A0       Vcl.ExtCtrls.TCustomLinkLabel.Create@
 0002:000002A8       Vcl.ExtCtrls.TLinkLabel.Create@
 0002:000002B0       Vcl.ExtCtrls.Vcl.ExtCtrls
 0002:000002B8       Vcl.Themes.TCustomStyleEngine.Create@
 0002:000002C0       Winapi.FlatSB.Winapi.FlatSB
 0002:000002C8       Vcl.Forms.TScrollBox.Create@
 0002:000002D0       Vcl.Forms.TCustomForm.Create@
 0002:000002D8       Vcl.Forms.TForm.Create@
 0002:000002E0       Vcl.Forms.Vcl.Forms
 0002:000002E8       Vcl.Menus.Vcl.Menus
 0002:000002F0       System.Win.ComObj.TComServerObject.Create@
 0002:000002F8       System.Win.ComObj.System.Win.ComObj
 0002:00000300       Vcl.Controls.Vcl.Controls
 0002:00000308       IDEMessages.IDEMessages
 0002:00000310       Vcl.CaptionedDockTree.Vcl.CaptionedDockTree
 0002:00000318       Vcl.DockTabSet.Vcl.DockTabSet
 0002:00000320       PercentageDockTree.PercentageDockTree
 0002:00000328       Vcl.Buttons.TBitBtn.Create@
 0002:00000330       Vcl.Buttons.Vcl.Buttons
 0002:00000338       Vcl.ExtDlgs.Vcl.ExtDlgs
 0002:00000340       Winapi.Mapi.Winapi.Mapi
 0002:00000348       Vcl.ExtActns.Vcl.ExtActns
 0002:00000350       Vcl.ActnMenus.Vcl.ActnMenus
 0002:00000358       Vcl.ActnMan.Vcl.ActnMan
 0002:00000360       Vcl.PlatformDefaultStyleActnCtrls.Vcl.PlatformDefaultStyleActnCtrls
 0002:00000368       BaseDock.BaseDock
 0002:00000370       DeskUtil.DeskUtil
 0002:00000378       DeskForm.DeskForm
 0002:00000380       DockForm.DockForm
 0002:00000388       Xml.Win.msxmldom.TMSXMLDOMDocumentFactory.Create@
 0002:00000390       Xml.Win.msxmldom.Xml.Win.msxmldom
 0002:00000398       Xml.Xmldom.Xml.Xmldom
 0002:000003A0       ToolsAPI.ToolsAPI
 0002:000003A8       Proxies.Proxies
 0002:000003B0       DesignEditors.DesignEditors
 0002:000003B8       VAUtils.VAUtils
 0002:000003C0       VA508AccessibilityConst.VA508AccessibilityConst
 0002:000003C8       Vcl.OleServer.Vcl.OleServer
 0002:000003D0       oleacc2.oleacc2
 0002:000003D8       MSAAConstants.MSAAConstants
 0002:000003E0       VA508MSAASupport.VA508MSAASupport
 0002:000003F8       VA508ScreenReaderDLLLinker.VA508ScreenReaderDLLLinker
 0002:00000404       VA508AccessibilityRouter.VA508AccessibilityRouter
 0002:0000042C       VA508ImageListLabeler.VA508ImageListLabeler
 0002:00000434       VA508Classes.VA508Classes
 0002:0000043C       Vcl.CheckLst.TCheckListBox.Create@
 0002:00000444       Vcl.Grids.TCustomGrid.Create@
 0002:0000044C       Vcl.Grids.TCustomDrawGrid.Create@
 0002:00000454       Vcl.Grids.TStringGrid.Create@
 0002:0000045C       Vcl.Grids.TDrawGrid.Create@
 0002:00000464       Data.SqlTimSt.Data.SqlTimSt
 0002:0000046C       Data.FmtBcd.Data.FmtBcd
 0002:00000474       Data.DB.Data.DB
 0002:0000047C       Vcl.DBLogDlg.Vcl.DBLogDlg
 0002:00000484       Vcl.DBPWDlg.Vcl.DBPWDlg
 0002:0000048C       Vcl.DBCtrls.TDBMemo.Create@
 0002:00000494       Vcl.DBCtrls.TDBLookupListBox.Create@
 0002:0000049C       Vcl.DBCtrls.TCustomDBLookupComboBox.Create@
 0002:000004A4       Vcl.DBCtrls.TDBLookupComboBox.Create@
 0002:000004AC       Vcl.DBCtrls.Vcl.DBCtrls
 0002:000004B4       Vcl.DBGrids.TCustomDBGrid.Create@
 0002:000004BC       Vcl.DBGrids.TDBGrid.Create@
 0002:000004C4       VA508DelphiCompatibility.VA508DelphiCompatibility
 0002:000004D8       VA508AccessibilityManager.VA508AccessibilityManager
 0002:000004F0       VA508AccessibilityCompileInfo.VA508AccessibilityCompileInfo
 0002:00000520       Vcl.AxCtrls.Vcl.AxCtrls
 0002:00000528       Vcl.AppEvnts.Vcl.AppEvnts
 0002:00000530       TreeIntf.TreeIntf
 0002:00000538       TopLevels.TopLevels
 0002:00000540       StFilSys.StFilSys
 0002:00000548       IDEHelp.IDEHelp
 0002:00000550       ComponentDesigner.ComponentDesigner
 0002:00000558       VCLEditors.VCLEditors
 0002:00000560       ToolWnds.ToolWnds
 0002:00000568       ColnEdit.ColnEdit
 0002:00000570       VA508AccessibilityPE.VA508AccessibilityPE
 0002:00000578       VA508AccessibilityCompiler.VA508AccessibilityCompiler
 0002:000005A8       VA508ImageListLabelerPE.VA508ImageListLabelerPE
 0002:000005B0       .VA508AccessXE3..VA508AccessXE3
 0003:00000000       SysInit.TlsIndex
 0003:00000004       SysInit.PtrToNil
 0003:00000008       SysInit.Module
 0003:00000024       SysInit.TlsProc
 0003:00000034       SysInit...
 0003:00000088       Winapi.Windows.Win32MajorVersion
 0003:0000008C       Winapi.Windows.Win32MinorVersion
 0003:00000090       Winapi.Windows.Win32Platform
 0003:00000094       oleacc2.LIBID_Accessibility
 0003:000000A4       oleacc2.IID_IAccessible
 0003:000000B4       oleacc2.IID_IAccessibleHandler
 0003:000000C4       oleacc2.IID_IAccIdentity
 0003:000000D4       oleacc2.IID_IAccPropServer
 0003:000000E4       oleacc2.IID_IAccPropServices
 0003:000000F4       oleacc2.CLASS_CAccPropServices
 0003:00000104       MSAAConstants.PROPID_ACC_NAME
 0003:00000114       MSAAConstants.PROPID_ACC_VALUE
 0003:00000124       MSAAConstants.PROPID_ACC_DESCRIPTION
 0003:00000134       MSAAConstants.PROPID_ACC_ROLE
 0003:00000144       MSAAConstants.PROPID_ACC_STATE
 0003:00000154       MSAAConstants.PROPID_ACC_HELP
 0003:00000164       MSAAConstants.PROPID_ACC_KEYBOARDSHORTCUT
 0003:00000174       MSAAConstants.PROPID_ACC_HELPTOPIC
 0003:00000184       MSAAConstants.PROPID_ACC_FOCUS
 0003:00000194       MSAAConstants.PROPID_ACC_SELECTION
 0003:000001A4       MSAAConstants.PROPID_ACC_PARENT
 0003:000001B4       MSAAConstants.PROPID_ACC_NAV_UP
 0003:000001C4       MSAAConstants.PROPID_ACC_NAV_DOWN
 0003:000001D4       MSAAConstants.PROPID_ACC_NAV_LEFT
 0003:000001E4       MSAAConstants.PROPID_ACC_NAV_RIGHT
 0003:000001F4       MSAAConstants.PROPID_ACC_NAV_PREV
 0003:00000204       MSAAConstants.PROPID_ACC_NAV_NEXT
 0003:00000214       MSAAConstants.PROPID_ACC_NAV_FIRSTCHILD
 0003:00000224       MSAAConstants.PROPID_ACC_NAV_LASTCHILD
 0003:00000234       MSAAConstants.PROPID_ACC_ROLEMAP
 0003:00000244       MSAAConstants.PROPID_ACC_VALUEMAP
 0003:00000254       MSAAConstants.PROPID_ACC_STATEMAP
 0003:00000264       MSAAConstants.PROPID_ACC_DESCRIPTIONMAP
 0003:00000274       MSAAConstants.PROPID_ACC_DODEFAULTACTION
 0003:00000284       VA508MSAASupport.VA508ImageListLabelerClasses
 0003:0000028C       VA508MSAASupport.uShutDown
 0003:00000290       VA508MSAASupport.Events
 0003:00000294       VA508MSAASupport.AccPropServices
 0003:00000298       VA508MSAASupport.AccServicesCount
 0003:0000029C       VA508ScreenReaderDLLLinker.SRSpeakText
 0003:000002A0       VA508ScreenReaderDLLLinker.SRIsRunning
 0003:000002A4       VA508ScreenReaderDLLLinker.SRCheckJaws
 0003:000002A8       VA508ScreenReaderDLLLinker.SRRegisterCustomBehavior
 0003:000002AC       VA508ScreenReaderDLLLinker.SRComponentData
 0003:000002B0       VA508ScreenReaderDLLLinker.SRConfigChangePending
 0003:000002B4       VA508ScreenReaderDLLLinker.ValidSRFiles
 0003:000002B8       VA508ScreenReaderDLLLinker.ExecuteFind
 0003:000002B9       VA508ScreenReaderDLLLinker.DoInitialize
 0003:000002BA       VA508ScreenReaderDLLLinker.InitializeResult
 0003:000002BC       VA508ScreenReaderDLLLinker.SRInitialize
 0003:000002C0       VA508ScreenReaderDLLLinker.SRShutDown
 0003:000002C4       VA508ScreenReaderDLLLinker.DLLHandle
 0003:000002C8       VA508AccessibilityRouter.ActiveScreenReader
 0003:000002CC       VA508AccessibilityRouter.MasterScreenReader
 0003:000002D0       VA508AccessibilityRouter.uNonDialogClassNames
 0003:000002D4       VA508AccessibilityRouter.SaveInitProc
 0003:000002D8       VA508AccessibilityRouter.Need2RegisterData
 0003:000002D9       VA508AccessibilityRouter.OK2RegisterData
 0003:000002DA       VA508AccessibilityRouter.CheckScreenReaderSystemActive
 0003:000002DB       VA508AccessibilityRouter.uScreenReaderSystemActive
 0003:000002DC       VA508AccessibilityRouter.uPostScreenReaderActivationTimer
 0003:000002E0       VA508AccessibilityManager.ControlsWithDefaultPropertySettings
 0003:00000310       VA508AccessibilityManager.NewComponentData
 0003:00000328       VA508AccessibilityManager.MasterPropertyList
 0003:0000032C       VA508AccessibilityManager.GlobalRegistry
 0003:00000330       VA508AccessibilityManager.AltHandleClasses
 0003:00000334       VA508AccessibilityManager.ManagedClasses
 0003:00000338       VA508AccessibilityManager.ComplexClasses
 0003:0000033C       VA508AccessibilityManager.MSAAQueryClasses
 0003:00000340       VA508AccessibilityManager.CanCheckEvent
 0003:00000344       VA508AccessibilityCompileInfo.frmProgress
 0003:00000348       VA508AccessibilityCompiler.NotifierIndex
 0003:0000034C       VA508AccessibilityCompiler.NotifierRegistered
 0004:FFFDB000       SysInit.__ImageBase
 0004:00000000       SysInit.ModuleIsLib
 0004:00000001       SysInit.ModuleIsPackage
 0004:00000004       SysInit.HInstance
 0004:0000000C       SysInit.DllProc
 0004:00000010       SysInit.@_pfnDliNotifyHook2
 0004:00000014       SysInit.@_pfnDliFailureHook2
 0004:00000018       SysInit..1
 0004:0000001C       SysInit.tlsBuffer
 0004:00000020       Winapi.Windows..2
 0004:00000024       Winapi.Windows.HtmlHelpModule
 0004:00000028       VA508AccessibilityConst..1
 0004:0000002C       oleacc2..2
 0004:00000030       MSAAConstants..1
 0004:00000034       VA508MSAASupport..1
 0004:00000038       VA508MSAASupport.NamePropIDs
 0004:00000048       VA508MSAASupport.uNotifier
 0004:0000004C       VA508ScreenReaderDLLLinker..1
 0004:00000050       VA508AccessibilityRouter..2
 0004:00000054       VA508ImageListLabeler..6
 0004:00000058       VA508Classes..5
 0004:0000005C       VA508DelphiCompatibility..2
 0004:00000060       VA508AccessibilityManager..21
 0004:00000064       VA508AccessibilityManager.TVAGlobalComponentRegistry.FActive
 0004:00000068       VA508AccessibilityManager.TVAGlobalComponentRegistry.FGetMsgHookHandle
 0004:0000006C       VA508AccessibilityCompileInfo..2
 0004:00000070       VA508AccessibilityCompileInfo.uProjectText
 0004:00000078       VA508AccessibilityCompileInfo.uStopProc
 0004:00000080       VA508AccessibilityCompileInfo.uLastUpdate
 0004:00000088       VA508AccessibilityCompileInfo.uStartTime
 0004:00000090       VA508AccessibilityPE..8
 0004:00000094       VA508AccessibilityCompiler..2
 0004:00000098       VA508AccessibilityCompiler.SaveDllProc
 0004:0000009C       VA508AccessibilityCompiler.MessageService
 0004:000000A0       VA508ImageListLabelerPE..7
 0005:00000000       SysInit.TlsLast


Line numbers for VA508AccessibilityConst(VA508AccessibilityConst.pas) segment .itext

    81 0002:000003C0

Line numbers for oleacc2(oleacc2.pas) segment .text

   261 0001:00001ED8   262 0001:00001EF7   263 0001:00001F14   266 0001:00001F48
   267 0001:00001F6E   268 0001:00001F99

Line numbers for oleacc2(oleacc2.pas) segment .itext

   270 0002:000003D0

Line numbers for MSAAConstants(MSAAConstants.pas) segment .itext

   175 0002:000003D8

Line numbers for VA508MSAASupport(VA508MSAASupport.pas) segment .text

   111 0001:00002A18   112 0001:00002A3B   114 0001:00002A5C   115 0001:00002A6A
   116 0001:00002A78   117 0001:00002A7E   119 0001:00002A98   122 0001:00002AA8
   130 0001:00002ACC   131 0001:00002AE7   133 0001:00002AF0   134 0001:00002B0A
   135 0001:00002B1A   136 0001:00002B21   137 0001:00002B26   139 0001:00002B3F
   140 0001:00002B45   143 0001:00002B68   144 0001:00002B6B   145 0001:00002B71
   147 0001:00002B7A   148 0001:00002B84   150 0001:00002B8E   153 0001:00002B90
   154 0001:00002B93   155 0001:00002B9A   157 0001:00002BA3   158 0001:00002BAA
   160 0001:00002BAF   166 0001:00002BB4   167 0001:00002BD7   169 0001:00002BE0
   170 0001:00002BF1   172 0001:00002BF6   174 0001:00002C10   175 0001:00002C2B
   176 0001:00002C33   177 0001:00002C42   172 0001:00002C45   178 0001:00002C4A
   179 0001:00002C52   180 0001:00002C5B   187 0001:00002C80   188 0001:00002C9F
   189 0001:00002CAC   190 0001:00002CB6   191 0001:00002CC5   192 0001:00002CD3
   193 0001:00002CE1   195 0001:00002CE7   196 0001:00002D07   197 0001:00002D14
   199 0001:00002D21   201 0001:00002D3F   203 0001:00002D4F   210 0001:00002D74
   211 0001:00002D90   212 0001:00002D99   213 0001:00002D9F   214 0001:00002DAD
   215 0001:00002DBB   217 0001:00002DC1   218 0001:00002DCE   219 0001:00002DE2
   220 0001:00002DEE   223 0001:00002E08   225 0001:00002E18   231 0001:00002E40
   232 0001:00002E5F   233 0001:00002E6C   234 0001:00002E76   235 0001:00002E85
   236 0001:00002E93   237 0001:00002EA1   239 0001:00002EA7   240 0001:00002EC7
   241 0001:00002ED4   243 0001:00002EE1   245 0001:00002EF9   247 0001:00002F09
   253 0001:00002F2C   254 0001:00002F4B   255 0001:00002F54   256 0001:00002F5A
   257 0001:00002F68   258 0001:00002F76   260 0001:00002F7C   261 0001:00002F89
   262 0001:00002F94   263 0001:00002FA0   266 0001:00002FBA   268 0001:00002FCA
   274 0001:00002FEC   275 0001:0000300B   276 0001:00003018   277 0001:00003022
   278 0001:00003031   279 0001:0000303F   280 0001:0000304D   282 0001:00003053
   283 0001:00003073   284 0001:00003080   286 0001:0000308D   288 0001:000030A5
   290 0001:000030B5   296 0001:000030D8   297 0001:000030F7   298 0001:00003100
   299 0001:00003106   300 0001:00003114   301 0001:00003122   303 0001:00003128
   304 0001:00003135   305 0001:00003140   306 0001:0000314C   309 0001:00003166
   311 0001:00003176   320 0001:00003198   321 0001:000031A4   322 0001:000031B5
   324 0001:000031BB   325 0001:000031CA   326 0001:000031D9   329 0001:000031E9
   330 0001:000031FA   331 0001:00003203   332 0001:0000320D   338 0001:00003214
   339 0001:00003220   340 0001:0000322E   342 0001:00003234   343 0001:00003243
   344 0001:0000324C   346 0001:0000325A   347 0001:00003264   353 0001:00003268
   354 0001:00003274   355 0001:00003282   357 0001:00003288   358 0001:00003297
   359 0001:000032A0   361 0001:000032AE   362 0001:000032B8   365 0001:000032BC
   366 0001:000032C8   367 0001:000032E7   370 0001:000032EC   371 0001:000032F3
   377 0001:00003314   380 0001:0000334E   383 0001:00003354   384 0001:0000336F
   385 0001:00003374   386 0001:0000337D   387 0001:0000338F   388 0001:0000339B
   390 0001:000033A5   391 0001:000033AD   394 0001:000033CC   395 0001:000033DD
   396 0001:000033E5   397 0001:000033F0   398 0001:000033F5   399 0001:00003403
   404 0001:00003418   405 0001:00003421   407 0001:00003433   408 0001:00003454
   410 0001:0000345A   412 0001:00003485   415 0001:0000348E   417 0001:00003495
   420 0001:0000349C   421 0001:000034A5   422 0001:000034B1   429 0001:000034B8
   430 0001:000034C1   432 0001:000034DA   434 0001:000034F7   435 0001:00003508
   438 0001:0000351E   439 0001:00003524   442 0001:00003526   430 0001:00003529
   443 0001:0000352E   444 0001:00003535   450 0001:00003540   451 0001:0000354C
   453 0001:00003565   455 0001:00003582   456 0001:00003593   458 0001:0000359E
   459 0001:000035A4   462 0001:000035A6   451 0001:000035A9   463 0001:000035AE
   464 0001:000035B5   467 0001:000035BC   468 0001:000035C5   469 0001:000035CE
   483 0001:000035D8   484 0001:00003618   485 0001:00003620   487 0001:00003632
   489 0001:0000363E   490 0001:00003646   491 0001:00003656   493 0001:0000366A
   485 0001:0000366D   494 0001:00003672   500 0001:000036B4   501 0001:000036C4
   502 0001:000036CC   504 0001:000036E8   506 0001:00003708   507 0001:0000371C
   509 0001:00003733   510 0001:00003750   513 0001:00003752   502 0001:00003755
   514 0001:0000375A   523 0001:00003760   524 0001:00003785   525 0001:00003791
   526 0001:0000379A   527 0001:000037AE   529 0001:000037B8   530 0001:000037C0
   532 0001:000037C8   533 0001:000037DD   534 0001:000037F2   535 0001:000037FE
   537 0001:00003823   538 0001:00003846   540 0001:0000384F   542 0001:00003864
   544 0001:000038A5   555 0001:000038D8   556 0001:0000390D   557 0001:00003919
   558 0001:00003933   559 0001:0000393B   560 0001:00003943   561 0001:0000395B
   562 0001:00003967   563 0001:0000397C   564 0001:00003988   566 0001:0000398E
   567 0001:00003992   568 0001:000039B6   569 0001:000039BF   570 0001:000039D4
   572 0001:00003A0C   574 0001:00003A1C   575 0001:00003A3A   576 0001:00003A7C
   577 0001:00003A8A   578 0001:00003A90   579 0001:00003A9D   581 0001:00003ACF
   583 0001:00003ADF   585 0001:00003B00   587 0001:00003B1E   588 0001:00003B61
   589 0001:00003B74   591 0001:00003B88   592 0001:00003B90   593 0001:00003B96
   594 0001:00003BA3   596 0001:00003BE5   583 0001:00003BE8   599 0001:00003BF1
   605 0001:00003C6C   606 0001:00003C73   608 0001:00003C8F   610 0001:00003CAF
   611 0001:00003CC3   613 0001:00003CDF   606 0001:00003CE2   614 0001:00003CE7
   620 0001:00003CEC   621 0001:00003CF3   623 0001:00003D0F   625 0001:00003D2F
   626 0001:00003D43   628 0001:00003D58   621 0001:00003D5B   629 0001:00003D60
   632 0001:00003D68   633 0001:00003D6B   634 0001:00003D76   635 0001:00003D82
   636 0001:00003D8D   639 0001:00003D90   640 0001:00003D93   641 0001:00003D9E
   642 0001:00003DA8   644 0001:00003DAC   645 0001:00003DDF   646 0001:00003DE8
   648 0001:00003E0C   650 0001:00003E20   652 0001:00003E26   654 0001:00003E2F
   655 0001:00003E36   656 0001:00003E3D   659 0001:00003E4D   663 0001:00003E59
   664 0001:00003E60   666 0001:00003E7A   667 0001:00003E81   668 0001:00003E89
   670 0001:00003E92   671 0001:00003EB0   673 0001:00003ECC   674 0001:00003ED7
   675 0001:00003EDF   677 0001:00003EE8   679 0001:00003EEF   681 0001:00003EF5
   682 0001:00003EFB   683 0001:00003F08   685 0001:00003F13   690 0001:00003F20
   691 0001:00003F27   692 0001:00003F2C   695 0001:00003F74   696 0001:00003F7B
   697 0001:00003F90   698 0001:00003FA3   704 0001:00003FA8   705 0001:00003FB4
   706 0001:00003FC5   707 0001:00003FCB   708 0001:00003FD9   709 0001:00003FE3
   714 0001:00003FEC   715 0001:00003FF8   716 0001:00004006   717 0001:0000400C
   718 0001:0000401A   719 0001:00004024   724 0001:00004028   725 0001:00004034
   726 0001:00004042   727 0001:00004048   728 0001:00004056   729 0001:00004060
   735 0001:00004064   736 0001:00004073   738 0001:00004079   740 0001:0000407E
   741 0001:00004094   738 0001:00004097   742 0001:0000409D   744 0001:000040B3
   747 0001:0000411C   748 0001:00004128   749 0001:00004147   752 0001:0000414C
   753 0001:00004153   754 0001:00004168   759 0001:0000416C   760 0001:00004179
   761 0001:00004186   762 0001:00004192   764 0001:00004198   765 0001:000041A0
   767 0001:000041A8   773 0001:000041B0   774 0001:000041BC   776 0001:000041D5
   778 0001:000041F2   779 0001:00004203   781 0001:0000420E   782 0001:00004214
   785 0001:00004216   774 0001:00004219   786 0001:0000421E   787 0001:00004225
   792 0001:00004248   794 0001:00004266

Line numbers for VA508MSAASupport(VA508MSAASupport.pas) segment .itext

   789 0002:000003E0   791 0002:000003F6

Line numbers for VA508ScreenReaderDLLLinker(VA508ScreenReaderDLLLinker.pas) segment .text

    86 0001:00004484    87 0001:0000448A    88 0001:00004491    89 0001:00004496
   105 0001:000044A0   106 0001:000044A4   107 0001:000044AB   119 0001:000044B0
   120 0001:000044B4   121 0001:000044BB   142 0001:000044C0   143 0001:000044C4
   144 0001:000044CB   156 0001:000044D0   157 0001:000044D4   158 0001:000044DB
   170 0001:000044E0   171 0001:000044E6   172 0001:000044ED   173 0001:000044F2
   185 0001:000044FC   186 0001:00004502   187 0001:00004509   188 0001:0000450E
   200 0001:00004518   201 0001:0000451E   202 0001:00004525   203 0001:00004529
   212 0001:00004530   213 0001:00004537   214 0001:0000453E   215 0001:00004545
   216 0001:0000454C   217 0001:00004553   218 0001:0000455A   219 0001:00004561
   220 0001:00004568   221 0001:0000456F   224 0001:00004570   225 0001:00004574
   227 0001:0000457D   228 0001:00004593   229 0001:0000459A   230 0001:000045A3
   232 0001:000045A8   233 0001:000045B0   236 0001:000045B8   237 0001:000045BB
   239 0001:000045C4   240 0001:000045CA   241 0001:000045D5   242 0001:000045DC
   244 0001:000045E1   249 0001:000045E4   250 0001:00004601   251 0001:00004611
   252 0001:00004624   254 0001:00004631   255 0001:00004646   256 0001:0000465B
   257 0001:00004670   258 0001:00004685   259 0001:0000469A   260 0001:000046AF
   261 0001:000046C4   263 0001:000046CB   269 0001:000047B8   270 0001:000047D2
   271 0001:000047D6   273 0001:000047F0   274 0001:00004800   275 0001:00004813
   277 0001:0000481C   278 0001:00004831   279 0001:00004846   281 0001:00004855
   271 0001:00004858   282 0001:0000485D   285 0001:000048AC   288 0001:000048BB
   289 0001:000048D8   291 0001:000048DE   292 0001:000048E2   294 0001:000048F1
   295 0001:000048FC   297 0001:00004903   305 0001:0000490C   306 0001:0000490F
   307 0001:00004924   308 0001:00004932   310 0001:0000493F   311 0001:00004954
   312 0001:00004962   314 0001:0000496F   315 0001:00004984   316 0001:00004992
   318 0001:0000499F   319 0001:000049B4   320 0001:000049C2   322 0001:000049CB
   323 0001:000049E0   324 0001:000049EE   326 0001:000049F7   327 0001:00004A0C
   328 0001:00004A1A   330 0001:00004A23   331 0001:00004A38   338 0001:00004A46
   339 0001:00004A4B   344 0001:00004B18   345 0001:00004B37   346 0001:00004B3E
   347 0001:00004B4E   349 0001:00004B5B   350 0001:00004B62   351 0001:00004B72
   353 0001:00004B78   354 0001:00004B8B   356 0001:00004B94   357 0001:00004BA2
   358 0001:00004BAC   359 0001:00004BB5   361 0001:00004BCF   362 0001:00004BDA
   367 0001:00004BE9   374 0001:00004C0C   375 0001:00004C59   376 0001:00004C63
   377 0001:00004C6E   378 0001:00004C74   379 0001:00004C81   380 0001:00004CAD
   381 0001:00004CBB   383 0001:00004CC1   385 0001:00004CF2   387 0001:00004D16
   381 0001:00004D24   390 0001:00004D37   392 0001:00004D4A   394 0001:00004DF8
   395 0001:00004E10   397 0001:00004E19   398 0001:00004E22   399 0001:00004E33
   400 0001:00004E47   401 0001:00004E4D   402 0001:00004E61   403 0001:00004E67
   404 0001:00004E8D   406 0001:00004E94   409 0001:00004EBC   410 0001:00004EC0
   411 0001:00004EC5   412 0001:00004ED5   418 0001:00004EDC   419 0001:00004EE5
   420 0001:00004EE9   421 0001:00004EEE   422 0001:00004EFE   424 0001:00004F18
   425 0001:00004F20   426 0001:00004F31   427 0001:00004F37   429 0001:00004F3D
   430 0001:00004F48   432 0001:00004F4F   422 0001:00004F52   433 0001:00004F57
   438 0001:00004F78   439 0001:00004F88   440 0001:00004F91   442 0001:00004F9B

Line numbers for VA508ScreenReaderDLLLinker(VA508ScreenReaderDLLLinker.pas) segment .itext

   435 0002:000003F8   437 0002:00000402

Line numbers for VA508AccessibilityRouter(VA508AccessibilityRouter.pas) segment .text

    23 0001:00005364    24 0001:0000536C    26 0001:00005374   117 0001:00005B90
   118 0001:00005B93   119 0001:00005B9C   120 0001:00005BA2   121 0001:00005BA9
   123 0001:00005BB2   124 0001:00005BB9   126 0001:00005BC2   129 0001:00005BCC
   132 0001:00005BD0   133 0001:00005BD4   135 0001:00005BDD   137 0001:00005BE6
   138 0001:00005BF7   141 0001:00005C03   143 0001:00005C14   144 0001:00005C1C
   149 0001:00005C24   150 0001:00005C48   152 0001:00005C55   153 0001:00005C5F
   155 0001:00005C6E   156 0001:00005C83   157 0001:00005C8E   158 0001:00005CB8
   159 0001:00005CD5   163 0001:00005CEF   170 0001:00006130   171 0001:00006136
   174 0001:00006149   175 0001:00006155   176 0001:00006164   177 0001:0000616B
   178 0001:00006171   179 0001:00006181   181 0001:0000618D   183 0001:00006194
   184 0001:000061AB   186 0001:000061B8   188 0001:000061BF   189 0001:000061EE
   190 0001:000061F8   192 0001:00006201   194 0001:0000620A   195 0001:00006215
   197 0001:00006221   201 0001:0000622A   202 0001:00006231   206 0001:00006238
   207 0001:00006240   212 0001:00006288   213 0001:000062A2   215 0001:000062AB
   216 0001:000062C1   217 0001:000062CA   218 0001:000062DB   219 0001:000062EC
   220 0001:000062F9   221 0001:00006302   224 0001:00006320   229 0001:00006348
   230 0001:0000634F   231 0001:0000635D   234 0001:00006364   235 0001:0000637C
   236 0001:0000638E   237 0001:000063A0   238 0001:000063A7   239 0001:000063AE
   240 0001:000063C0   250 0001:000063E0   251 0001:000063FF   252 0001:00006407
   254 0001:00006414   255 0001:0000642C   256 0001:0000643C   257 0001:00006452
   259 0001:00006465   261 0001:00006488   262 0001:000064B9   263 0001:000064D5
   264 0001:000064ED   265 0001:00006505   266 0001:0000650B   267 0001:00006521
   270 0001:00006594   271 0001:000065A5   272 0001:000065AA   273 0001:000065B5
   274 0001:000065C0   275 0001:000065CB   276 0001:000065D9   284 0001:000065EC
   285 0001:0000660E   286 0001:00006619   287 0001:00006622   288 0001:00006638
   289 0001:0000664E   291 0001:00006710   292 0001:00006749   293 0001:00006791
   296 0001:000067BC   297 0001:000067DB   298 0001:000067F9   299 0001:00006801
   305 0001:00006824   306 0001:00006830   307 0001:0000683C   308 0001:00006850
   309 0001:00006861   310 0001:00006864   313 0001:00006868   314 0001:0000688A
   315 0001:0000689B   316 0001:000068AC   325 0001:000068D0   326 0001:00006905
   327 0001:0000691B   328 0001:0000692C   330 0001:00006936   331 0001:00006944
   332 0001:0000694F   333 0001:00006957   334 0001:00006962   336 0001:00006968
   337 0001:00006976   338 0001:0000697C   340 0001:00006983   341 0001:0000698E
   343 0001:000069C3   347 0001:000069D6   351 0001:00006A04   352 0001:00006A31
   353 0001:00006A43   354 0001:00006A55   360 0001:00006A7C   361 0001:00006A95
   362 0001:00006AA0   363 0001:00006AAD   364 0001:00006AB4   381 0001:00006ADC
   382 0001:00006AFE   383 0001:00006B08   384 0001:00006B16   385 0001:00006B25
   386 0001:00006B33   388 0001:00006B51   390 0001:00006B6D   391 0001:00006B96
   392 0001:00006BA4   393 0001:00006BBB   394 0001:00006BC9   395 0001:00006BD7
   396 0001:00006BDF   397 0001:00006BED   398 0001:00006BF8   399 0001:00006C07
   400 0001:00006C0D   401 0001:00006C2B   402 0001:00006C31   404 0001:00006C52
   406 0001:00006C64   409 0001:00006C81   411 0001:00006C91   388 0001:00006C94
   414 0001:00006CAA   417 0001:00006CC7   419 0001:00006CD9   421 0001:00006D28
   422 0001:00006D4D   423 0001:00006D5A   424 0001:00006D61   425 0001:00006D6F
   427 0001:00006D7C   428 0001:00006D8A   429 0001:00006D91   430 0001:00006DA1
   432 0001:00006DBC   433 0001:00006DCD   434 0001:00006DE3   435 0001:00006E02
   430 0001:00006E05   436 0001:00006E0A   438 0001:00006E2C   442 0001:00006E41
   444 0001:00006E55   446 0001:00006E64   456 0001:00006E90   457 0001:00006EBE
   458 0001:00006EDC   459 0001:00006EEB   460 0001:00006F1C   461 0001:00006F42
   463 0001:00006FFC   464 0001:00007037   465 0001:00007045   466 0001:00007056
   467 0001:00007068   468 0001:00007077   469 0001:00007086   472 0001:000070EC
   473 0001:00007119   474 0001:0000712B   477 0001:00007154   478 0001:0000715D
   479 0001:00007166   481 0001:0000716C   482 0001:00007174   484 0001:0000717D
   487 0001:00007184   488 0001:0000718B   489 0001:00007199   492 0001:000071A0
   493 0001:000071C5   494 0001:000071D5   495 0001:000071E3   497 0001:00007210
   499 0001:00007223   518 0001:00007248   519 0001:00007251   521 0001:0000725E
   522 0001:0000726C   523 0001:00007272   526 0001:00007284   527 0001:0000728A
   528 0001:0000728F   529 0001:00007294   530 0001:00007299   531 0001:0000729E
   532 0001:000072A3   533 0001:000072A8   534 0001:000072AD   535 0001:000072B3
   538 0001:000072BA   539 0001:000072D9   540 0001:000072E0   542 0001:00007308
   536 0001:0000730B   544 0001:0000731D   547 0001:00007365   550 0001:0000737A
   556 0001:00007384   557 0001:0000738B   560 0001:00007390   561 0001:000073B2
   564 0001:000073D4   565 0001:00007401   569 0001:00007428   571 0001:0000745D
   574 0001:00007490   575 0001:000074BD   579 0001:000074E4   580 0001:000074EB
   583 0001:000074F0   584 0001:00007512   591 0001:00007534   592 0001:00007548
   593 0001:00007552   594 0001:0000755B   595 0001:00007565   596 0001:0000756E
   598 0001:00007578

Line numbers for VA508AccessibilityRouter(VA508AccessibilityRouter.pas) segment .itext

   586 0002:00000404   587 0002:00000410   588 0002:0000041C   590 0002:00000427

Line numbers for VA508ImageListLabeler(VA508ImageListLabeler.pas) segment .text

   135 0001:0000827C   136 0001:00008280   137 0001:00008297   142 0001:000082B8
   143 0001:000082BF   144 0001:000082C9   147 0001:000082CC   148 0001:000082E7
   149 0001:000082F4   150 0001:000082FB   151 0001:0000830D   152 0001:00008322
   153 0001:00008337   154 0001:00008349   155 0001:0000835C   156 0001:0000836B
   159 0001:0000838C   160 0001:0000839D   161 0001:000083A8   162 0001:000083B3
   163 0001:000083BD   164 0001:000083C7   165 0001:000083D2   166 0001:000083DD
   167 0001:000083E8   168 0001:000083F3   169 0001:00008401   175 0001:00008414
   176 0001:00008437   177 0001:00008441   179 0001:00008447   180 0001:00008450
   182 0001:00008463   186 0001:00008473   187 0001:0000847C   189 0001:0000848F
   191 0001:0000849D   192 0001:000084AA   194 0001:000084C5   195 0001:000084CD
   200 0001:000084F4   201 0001:00008501   203 0001:0000850F   204 0001:00008516
   205 0001:0000851D   206 0001:0000852B   208 0001:00008546   209 0001:00008559
   211 0001:00008562   206 0001:00008565   212 0001:0000856A   213 0001:00008573
   215 0001:0000858C   218 0001:0000859B   221 0001:000085A0   222 0001:000085A8
   223 0001:000085B1   224 0001:000085BA   225 0001:000085C4   226 0001:000085D0
   229 0001:000085D4   230 0001:000085DB   231 0001:000085E3   232 0001:000085EA
   233 0001:000085F6   234 0001:00008600   243 0001:00008604   244 0001:00008610
   245 0001:00008637   246 0001:00008656   247 0001:00008665   248 0001:00008673
   250 0001:00008692   251 0001:000086A3   253 0001:000086AC   254 0001:000086BA
   255 0001:000086CE   256 0001:000086D4   259 0001:000086DA   260 0001:000086E8
   262 0001:000086EE   263 0001:000086F4   265 0001:00008712   248 0001:00008715
   266 0001:0000871E   268 0001:00008737   269 0001:00008748   270 0001:00008759
   266 0001:0000875C   272 0001:0000876E   273 0001:00008779   275 0001:0000878A
   279 0001:00008790   280 0001:0000879F   281 0001:000087AD   282 0001:000087BE
   283 0001:000087C8   289 0001:000087CC   290 0001:000087EC   291 0001:000087F9
   293 0001:00008802   294 0001:0000880A   296 0001:0000880F   298 0001:0000881E
   299 0001:00008825   300 0001:00008833   302 0001:0000883C   303 0001:0000884D
   305 0001:0000885B   306 0001:00008864   308 0001:00008871   309 0001:0000887F
   310 0001:00008890   312 0001:000088A3   313 0001:000088BC   315 0001:000088D7
   316 0001:000088EC   317 0001:000088F2   318 0001:00008904   313 0001:00008907
   319 0001:0000890C   321 0001:00008927   322 0001:00008934   323 0001:00008947
   319 0001:0000894A   326 0001:0000894F   327 0001:00008959   329 0001:00008972
   332 0001:00008981   335 0001:000089A4   336 0001:000089B0   338 0001:000089BB
   340 0001:000089C1   341 0001:000089CC   343 0001:000089D6   345 0001:000089DF
   350 0001:000089E4   351 0001:000089ED   352 0001:000089F8   355 0001:00008A00
   356 0001:00008A1B   357 0001:00008A2B   358 0001:00008A3D   359 0001:00008A4F
   360 0001:00008A58   361 0001:00008A6A   362 0001:00008A7A   363 0001:00008A8A
   364 0001:00008A9A   365 0001:00008AAA   368 0001:00008B4C   369 0001:00008B5D
   370 0001:00008B65   371 0001:00008B70   372 0001:00008B7B   373 0001:00008B86
   374 0001:00008B94   377 0001:00008BA8   378 0001:00008BB8   379 0001:00008BC9
   382 0001:00008BD0   383 0001:00008BD9   384 0001:00008BE7   390 0001:00008BF0
   391 0001:00008BFA   393 0001:00008C15   395 0001:00008C2D   397 0001:00008C3D
   396 0001:00008C4A   398 0001:00008C5D   399 0001:00008C74   393 0001:00008C77
   401 0001:00008C7C   402 0001:00008C85   405 0001:00008C90   406 0001:00008C9C
   407 0001:00008CAA   410 0001:00008CB4   411 0001:00008CC3   412 0001:00008CDC
   413 0001:00008CEE   414 0001:00008CFF   416 0001:00008D0E   418 0001:00008D26
   419 0001:00008D37   421 0001:00008D46   423 0001:00008D5E   424 0001:00008D76
   426 0001:00008D7E   432 0001:00008D94   433 0001:00008D9E   435 0001:00008DAB
   436 0001:00008DB2   438 0001:00008DBE   440 0001:00008DD6   441 0001:00008DE4
   444 0001:00008DEF   443 0001:00008DFC   445 0001:00008E0F   447 0001:00008E26
   438 0001:00008E29   450 0001:00008E2E   451 0001:00008E37   454 0001:00008E40
   455 0001:00008E49   456 0001:00008E52   460 0001:00008E5C   461 0001:00008E6B
   462 0001:00008E79   463 0001:00008E81   466 0001:00008E88   467 0001:00008E8F
   468 0001:00008E9A   469 0001:00008EA5   470 0001:00008EAC   473 0001:00008EB0
   474 0001:00008EBF   475 0001:00008ECD   478 0001:00008ED4   479 0001:00008EE0
   480 0001:00008EEB   481 0001:00008EF3   488 0001:00008EF8   489 0001:00008F04
   491 0001:00008F16   492 0001:00008F1C   493 0001:00008F2A   496 0001:00008F3D
   497 0001:00008F48   500 0001:00008F4C   501 0001:00008F53   502 0001:00008F60
   505 0001:00008F64   506 0001:00008F7F   507 0001:00008F8C   508 0001:00008F96
   509 0001:00008FA0   512 0001:00008FC0   513 0001:00008FD1   514 0001:00008FDF
   517 0001:00008FF4   518 0001:00008FFE   519 0001:00009016   522 0001:00009020
   523 0001:00009027   524 0001:00009035   527 0001:00009038   528 0001:00009045
   530 0001:00009055   531 0001:00009063   533 0001:00009077   538 0001:0000907C
   539 0001:00009089   540 0001:00009097   543 0001:000090A2   544 0001:000090AB
   545 0001:000090B9   547 0001:000090C5   548 0001:000090E0   550 0001:000090EB
   551 0001:000090F5   553 0001:00009100   554 0001:00009108   558 0001:0000911C
   561 0001:00009124   562 0001:00009130   564 0001:00009147   566 0001:00009150
   571 0001:00009154   572 0001:0000915D   573 0001:00009168   576 0001:00009170
   577 0001:0000918B   578 0001:0000919B   579 0001:000091A4   582 0001:000091C4
   583 0001:000091D5   584 0001:000091DD   585 0001:000091EB   589 0001:00009200
   590 0001:0000920C   591 0001:0000921A   594 0001:00009224   595 0001:0000922D
   596 0001:00009236   600 0001:00009240   601 0001:0000924F   602 0001:0000925D
   603 0001:0000926A   607 0001:00009270   608 0001:0000927F   609 0001:0000928D
   616 0001:00009294   617 0001:000092A0   619 0001:000092B2   620 0001:000092B8
   623 0001:000092C8   624 0001:000092D3   628 0001:000092D8   629 0001:000092E7
   630 0001:000092FE   631 0001:00009308   634 0001:0000930C   635 0001:0000931D
   636 0001:00009327   637 0001:00009330   638 0001:0000933B   639 0001:00009349
   642 0001:0000935C   643 0001:0000937B   644 0001:00009396   646 0001:000093CB
   647 0001:000093D6   656 0001:0000941C   657 0001:00009425   658 0001:0000942D
   659 0001:0000943B   660 0001:0000944F   661 0001:00009460   662 0001:0000946A
   664 0001:0000947F   666 0001:00009488   667 0001:00009496   668 0001:0000949E
   669 0001:000094AC   672 0001:000094B2   674 0001:000094C7   676 0001:000094D0
   677 0001:000094DE   678 0001:000094E6   679 0001:000094F4   680 0001:000094FC
   681 0001:0000950A   684 0001:0000950E   687 0001:00009528   688 0001:00009532
   689 0001:0000954A   695 0001:00009554   696 0001:00009576   698 0001:00009585
   700 0001:0000958B   701 0001:0000958F   703 0001:00009594   705 0001:000095AC
   706 0001:000095B0   708 0001:000095B2   701 0001:000095B5   709 0001:000095BB
   710 0001:000095C1   712 0001:000095F2   713 0001:00009604   714 0001:00009615
   716 0001:0000961B   717 0001:00009624   718 0001:00009641   720 0001:0000964F
   721 0001:00009658   723 0001:00009667

Line numbers for VA508ImageListLabeler(VA508ImageListLabeler.pas) segment .itext

   725 0002:0000042C

Line numbers for VA508Classes(VA508Classes.pas) segment .text

   112 0001:0000A354   113 0001:0000A360   114 0001:0000A364   116 0001:0000A37C
   117 0001:0000A38A   119 0001:0000A3A4   120 0001:0000A3A8   122 0001:0000A3AA
   124 0001:0000A3C3   125 0001:0000A3C7   127 0001:0000A3C9   114 0001:0000A3CC
   128 0001:0000A3D1   139 0001:0000A3D8   140 0001:0000A3F4   142 0001:0000A414
   143 0001:0000A418   145 0001:0000A433   147 0001:0000A450   148 0001:0000A454
   150 0001:0000A456   143 0001:0000A459   151 0001:0000A45E   153 0001:0000A464
   157 0001:0000A4B1   159 0001:0000A574   160 0001:0000A5AC   161 0001:0000A5B2
   162 0001:0000A5E5   164 0001:0000A5F7   167 0001:0000A601   169 0001:0000A64B
   171 0001:0000A65D   172 0001:0000A66A   173 0001:0000A670   174 0001:0000A67D
   176 0001:0000A6BA   177 0001:0000A6C0   180 0001:0000A6C9   181 0001:0000A6D8
   184 0001:0000A730   194 0001:0000A920   195 0001:0000A945   196 0001:0000A94F
   197 0001:0000A958   198 0001:0000A962   199 0001:0000A975   201 0001:0000A98F
   202 0001:0000A99E   203 0001:0000A9AC   204 0001:0000A9B0   205 0001:0000A9B4
   207 0001:0000A9CC   209 0001:0000A9E6   210 0001:0000A9EA   213 0001:0000AA01
   215 0001:0000AA1B   216 0001:0000AA1F   218 0001:0000AA34   205 0001:0000AA37
   219 0001:0000AA3C   220 0001:0000AA44   221 0001:0000AA4A   222 0001:0000AA57
   224 0001:0000AA5D   225 0001:0000AA63   226 0001:0000AA70   228 0001:0000AA88
   230 0001:0000AA8E   233 0001:0000AAE5   236 0001:0000AAF5   241 0001:0000ABE8
   242 0001:0000ABF1   243 0001:0000ABFC   246 0001:0000AC04   247 0001:0000AC0D
   248 0001:0000AC18   251 0001:0000AC20   252 0001:0000AC3F   253 0001:0000AC4D
   254 0001:0000AC66   262 0001:0000AC88   263 0001:0000ACBD   265 0001:0000ACCC
   266 0001:0000ACDB   267 0001:0000ACE9   268 0001:0000ACF4   269 0001:0000AD02
   270 0001:0000AD0A   271 0001:0000AD13   272 0001:0000AD1C   273 0001:0000AD25
   275 0001:0000AD33   280 0001:0000AD64   281 0001:0000AD91   282 0001:0000AD9F
   283 0001:0000ADAD   284 0001:0000ADB9   285 0001:0000ADC2   288 0001:0000ADE8
   289 0001:0000ADEF   290 0001:0000ADFA   293 0001:0000AE00   294 0001:0000AE18
   295 0001:0000AE2A   298 0001:0000AE4C   299 0001:0000AE5D   300 0001:0000AE68
   301 0001:0000AE76   307 0001:0000AE88   308 0001:0000AEAF   309 0001:0000AEBA
   310 0001:0000AEBF   312 0001:0000AED8   314 0001:0000AEF0   315 0001:0000AEFE
   317 0001:0000AF00   310 0001:0000AF03   318 0001:0000AF08   321 0001:0000AF34
   322 0001:0000AF3D   323 0001:0000AF49   326 0001:0000AF50   327 0001:0000AF5C
   328 0001:0000AF6D   335 0001:0000AF74   336 0001:0000AF9D   337 0001:0000AFAB
   338 0001:0000AFB3   339 0001:0000AFBE   340 0001:0000AFCC   341 0001:0000AFD5
   342 0001:0000AFF0   344 0001:0000B01D   347 0001:0000B044   350 0001:0000B07D
   356 0001:0000B0E1   358 0001:0000B0E9   367 0001:0000B704   368 0001:0000B710
   369 0001:0000B714   370 0001:0000B722   372 0001:0000B72C   373 0001:0000B730
   375 0001:0000B739   376 0001:0000B746   377 0001:0000B74C   378 0001:0000B757
   379 0001:0000B75D   382 0001:0000B76D   383 0001:0000B77B   384 0001:0000B791
   385 0001:0000B79A   386 0001:0000B7AD   388 0001:0000B7B6   390 0001:0000B7C2
   393 0001:0000B7DE   394 0001:0000B7E7   396 0001:0000B7ED   399 0001:0000B7F3
   402 0001:0000B7F9   405 0001:0000B7FF   407 0001:0000B810   408 0001:0000B81C
   410 0001:0000B828   426 0001:0000B830   427 0001:0000B865   428 0001:0000B87E
   429 0001:0000B889   430 0001:0000B890   431 0001:0000B897   433 0001:0000B89E
   434 0001:0000B8A7   435 0001:0000B8B2   436 0001:0000B8C4   437 0001:0000B8CC
   438 0001:0000B8D4   439 0001:0000B8DA   441 0001:0000B8EA   442 0001:0000B90A
   445 0001:0000B91A   446 0001:0000B92E   447 0001:0000B93A   448 0001:0000B946
   443 0001:0000B94E   451 0001:0000B978   453 0001:0000B97E   454 0001:0000B986
   457 0001:0000B98F   458 0001:0000B99F   460 0001:0000B9B2   461 0001:0000B9C0
   464 0001:0000B9EC   465 0001:0000B9F5   466 0001:0000B9FE   469 0001:0000BA08
   470 0001:0000BA11   471 0001:0000BA1B   476 0001:0000BA24   477 0001:0000BA28
   479 0001:0000BA34   480 0001:0000BA38   482 0001:0000BA3A   486 0001:0000BA4D
   488 0001:0000BA53   490 0001:0000BA57   495 0001:0000BA60   496 0001:0000BA64
   497 0001:0000BA68   499 0001:0000BA74   501 0001:0000BA89   502 0001:0000BA93
   504 0001:0000BA99   506 0001:0000BAAE   507 0001:0000BAB8   508 0001:0000BAC2
   511 0001:0000BAC6   512 0001:0000BAD4   513 0001:0000BADA   514 0001:0000BAE4
   516 0001:0000BB38   517 0001:0000BB52   519 0001:0000BB61   520 0001:0000BB88
   521 0001:0000BB98   523 0001:0000BBA8   524 0001:0000BBB7   525 0001:0000BBE6
   526 0001:0000BC0A   527 0001:0000BC16   528 0001:0000BC31   530 0001:0000BC3D
   531 0001:0000BC49   532 0001:0000BC64   534 0001:0000BC70   535 0001:0000BC7C
   536 0001:0000BC97   538 0001:0000BCA3   539 0001:0000BCAF   541 0001:0000BCB8
   542 0001:0000BCC9   545 0001:0000BCD2   547 0001:0000BCDB   550 0001:0000BD08
   551 0001:0000BD19   553 0001:0000BD20   556 0001:0000BD29   558 0001:0000BD30

Line numbers for VA508Classes(VA508Classes.pas) segment .itext

   561 0002:00000434

Line numbers for VA508DelphiCompatibility(VA508DelphiCompatibility.pas) segment .text

    85 0001:0000CAA8    86 0001:0000CAC5    87 0001:0000CACB    88 0001:0000CAD6
    89 0001:0000CAEC    90 0001:0000CB0C    93 0001:0000CB4C    94 0001:0000CB69
    95 0001:0000CB6F    96 0001:0000CB7C    97 0001:0000CB89    99 0001:0000CBD4
   100 0001:0000CBF7   101 0001:0000CBFD   102 0001:0000CC05   103 0001:0000CC09
   104 0001:0000CC2A   105 0001:0000CC3E   107 0001:0000CC5C   108 0001:0000CC74
   110 0001:0000CC7A   112 0001:0000CC94   114 0001:0000CC9A   115 0001:0000CCA8
   116 0001:0000CCAE   117 0001:0000CCBB   120 0001:0000CCC5   122 0001:0000CCD5
   124 0001:0000CCF6   126 0001:0000CD10   127 0001:0000CD2B   128 0001:0000CD3E
   130 0001:0000CD52   131 0001:0000CD5A   132 0001:0000CD60   133 0001:0000CD6D
   135 0001:0000CD77   122 0001:0000CD7A   137 0001:0000CD83   140 0001:0000CDC0
   141 0001:0000CDD8   142 0001:0000CDE7   143 0001:0000CDF8   144 0001:0000CE09
   145 0001:0000CE1A   146 0001:0000CE2B   147 0001:0000CE3C   149 0001:0000CE4D
   152 0001:0000CE55   153 0001:0000CE71   156 0001:0000CE8D   173 0001:0000CE9C
   184 0001:0000CF08   185 0001:0000CF11   186 0001:0000CF1D   191 0001:0000CF24
   192 0001:0000CF30   193 0001:0000CF36   195 0001:0000CF45   196 0001:0000CF52
   199 0001:0000CFB0   200 0001:0000CFBC   201 0001:0000CFC2   203 0001:0000CFD1
   204 0001:0000CFDE   207 0001:0000D078   208 0001:0000D084   209 0001:0000D093
   210 0001:0000D0A2   211 0001:0000D0B1   212 0001:0000D0C0   214 0001:0000D0C8
   218 0001:0000D13C   219 0001:0000D154   220 0001:0000D16D   223 0001:0000D190
   224 0001:0000D19F   225 0001:0000D1B0   228 0001:0000D1B4   229 0001:0000D1C3
   230 0001:0000D1D6   233 0001:0000D1DC   234 0001:0000D1EB   235 0001:0000D1FC
   240 0001:0000D200   241 0001:0000D218   242 0001:0000D231   248 0001:0000D254
   249 0001:0000D263   250 0001:0000D269   251 0001:0000D275   253 0001:0000D284
   254 0001:0000D291   261 0001:0000D308   262 0001:0000D317   263 0001:0000D31D
   264 0001:0000D32B   265 0001:0000D331   267 0001:0000D33B   268 0001:0000D34E
   273 0001:0000D354   274 0001:0000D360   275 0001:0000D366   277 0001:0000D375
   278 0001:0000D384   280 0001:0000D38B   283 0001:0000D394   284 0001:0000D3A2
   289 0001:0000D3AC   290 0001:0000D3B9   291 0001:0000D3BF   292 0001:0000D3E6
   298 0001:0000D3F0   299 0001:0000D3FF   300 0001:0000D405   301 0001:0000D413
   302 0001:0000D419   304 0001:0000D423   305 0001:0000D436   313 0001:0000D43C
   316 0001:0000D454   319 0001:0000D46D   336 0001:0000D490   337 0001:0000D49F
   340 0001:0000D4AC   414 0001:0000D4CC   415 0001:0000D4DB   416 0001:0000D4E3
   431 0001:0000D4E9   432 0001:0000D4F9   433 0001:0000D505   434 0001:0000D515
   435 0001:0000D525   473 0001:0000D5B0   474 0001:0000D5BC   475 0001:0000D5C2
   476 0001:0000D5D1   477 0001:0000D5E0   478 0001:0000D5EF   479 0001:0000D5F8
   480 0001:0000D5FF   481 0001:0000D60B   498 0001:0000D614   499 0001:0000D641
   500 0001:0000D647   501 0001:0000D653   502 0001:0000D65F   506 0001:0000D673
   507 0001:0000D67F   509 0001:0000D6AB   510 0001:0000D6B3   511 0001:0000D6B9
   512 0001:0000D700   520 0001:0000D71A   521 0001:0000D726   523 0001:0000D752
   524 0001:0000D75A   525 0001:0000D760   526 0001:0000D7A7   532 0001:0000D7C1
   533 0001:0000D7EC   534 0001:0000D7F2   535 0001:0000D7FF   538 0001:0000D817
   539 0001:0000D824   545 0001:0000D8D4   546 0001:0000D8EC   547 0001:0000D905
   550 0001:0000D928   551 0001:0000D937   552 0001:0000D944   556 0001:0000D958
   557 0001:0000D967   558 0001:0000D974   564 0001:0000D990   565 0001:0000D9B3
   566 0001:0000D9B9   567 0001:0000D9C4   568 0001:0000D9D0   570 0001:0000D9D6
   571 0001:0000D9FB   568 0001:0000DA07   573 0001:0000DA0D   578 0001:0000DA40
   579 0001:0000DA58   580 0001:0000DA71   583 0001:0000DA94   584 0001:0000DAA3
   585 0001:0000DAAE   590 0001:0000DAB4   591 0001:0000DACC   592 0001:0000DAE5
   595 0001:0000DB08   596 0001:0000DB17   597 0001:0000DB22

Line numbers for VA508DelphiCompatibility(VA508DelphiCompatibility.pas) segment .itext

   599 0002:000004C4   600 0002:000004D0   602 0002:000004D5

Line numbers for VA508AccessibilityManager(VA508AccessibilityManager.pas) segment .text

   194 0001:0000F6CC   317 0001:00010440   530 0001:00011460   531 0001:00011463
   532 0001:00011475   533 0001:00011486   536 0001:00011488   537 0001:0001148B
   538 0001:00011494   539 0001:000114A5   540 0001:000114AA   543 0001:000114AC
   544 0001:000114AF   545 0001:000114B8   546 0001:000114C2   547 0001:000114CB
   548 0001:000114D5   549 0001:000114DE   550 0001:000114E8   551 0001:000114F1
   552 0001:000114FB   553 0001:00011504   554 0001:0001150E   555 0001:00011517
   556 0001:00011521   561 0001:00011524   562 0001:00011530   564 0001:00011542
   565 0001:00011548   566 0001:00011554   567 0001:00011560   568 0001:0001156C
   569 0001:0001157D   570 0001:0001158E   571 0001:0001159A   573 0001:000115A8
   574 0001:000115B3   577 0001:000115B8   578 0001:000115D3   579 0001:000115E0
   582 0001:00011600   583 0001:00011611   584 0001:00011624   585 0001:0001162D
   586 0001:00011638   587 0001:00011646   590 0001:00011658   591 0001:0001167A
   593 0001:00011683   597 0001:000116C8   598 0001:000116D5   601 0001:00011720
   602 0001:0001172F   603 0001:00011738   604 0001:0001174C   605 0001:00011753
   608 0001:00011758   609 0001:00011761   610 0001:0001176D   613 0001:00011774
   614 0001:0001177D   615 0001:00011786   618 0001:00011790   619 0001:0001179C
   623 0001:000117DA   624 0001:000117ED   625 0001:000117FA   627 0001:0001180D
   630 0001:0001181C   631 0001:0001183B   633 0001:00011846   634 0001:0001184F
   636 0001:00011858   637 0001:00011860   638 0001:0001186B   640 0001:00011878
   641 0001:0001188F   643 0001:000118B3   646 0001:000118D4   647 0001:000118E0
   649 0001:000118EB   650 0001:000118F4   652 0001:000118FD   653 0001:00011908
   654 0001:00011913   657 0001:0001191A   660 0001:00011920   661 0001:0001192C
   665 0001:0001196A   666 0001:00011978   668 0001:00011981   669 0001:00011989
   670 0001:00011994   673 0001:0001199B   676 0001:000119A0   677 0001:000119AC
   679 0001:000119BC   680 0001:000119CA   682 0001:000119D3   683 0001:000119DB
   684 0001:000119E6   687 0001:000119ED   690 0001:000119F4   691 0001:000119FB
   692 0001:00011A02   694 0001:00011A0B   695 0001:00011A14   698 0001:00011A1D
   699 0001:00011A38   701 0001:00011A41   702 0001:00011A50   704 0001:00011A57
   709 0001:00011A5C   710 0001:00011A65   711 0001:00011A70   717 0001:00011A78
   718 0001:00011A87   720 0001:00011A9F   721 0001:00011AA8   722 0001:00011AB5
   723 0001:00011AC5   724 0001:00011ACB   726 0001:00011AD3   730 0001:00011AD8
   731 0001:00011AF3   732 0001:00011B03   733 0001:00011B0C   734 0001:00011B1E
   735 0001:00011B2B   736 0001:00011B35   737 0001:00011B52   740 0001:00011B74
   741 0001:00011B85   742 0001:00011B93   743 0001:00011B9E   744 0001:00011BA9
   745 0001:00011BB7   749 0001:00011BCC   750 0001:00011BD8   751 0001:00011BE5
   758 0001:00011BEC   759 0001:00011C0F   760 0001:00011C14   762 0001:00011C1A
   763 0001:00011C25   764 0001:00011C36   766 0001:00011C3C   768 0001:00011C42
   769 0001:00011C4D   770 0001:00011C5A   774 0001:00011C6A   776 0001:00011C7B
   780 0001:00011CA0   781 0001:00011CAC   782 0001:00011CBA   785 0001:00011CC4
   786 0001:00011CCD   787 0001:00011CD6   791 0001:00011CE0   792 0001:00011CFF
   793 0001:00011D05   795 0001:00011D26   796 0001:00011D2A   803 0001:00011D50
   804 0001:00011D6F   805 0001:00011D78   806 0001:00011D85   807 0001:00011D8B
   808 0001:00011D96   809 0001:00011DA7   811 0001:00011DAD   812 0001:00011DBB
   814 0001:00011DC9   818 0001:00011DEC   819 0001:00011DFB   820 0001:00011E09
   830 0001:00011E10   831 0001:00011E33   832 0001:00011E3C   833 0001:00011E4F
   834 0001:00011E5B   835 0001:00011E66   837 0001:00011E78   838 0001:00011E89
   840 0001:00011E97   845 0001:00011EBC   846 0001:00011ED7   847 0001:00011EE4
   848 0001:00011EF3   849 0001:00011EF8   850 0001:00011F0D   851 0001:00011F15
   854 0001:00011F34   855 0001:00011F45   856 0001:00011F4D   857 0001:00011F56
   858 0001:00011F61   859 0001:00011F6A   860 0001:00011F75   861 0001:00011F83
   873 0001:00011F98   874 0001:00011FBA   875 0001:00011FBF   877 0001:00011FD1
   878 0001:00011FD7   880 0001:00011FD9   882 0001:00011FF1   884 0001:0001200B
   885 0001:00012019   887 0001:0001201B   880 0001:0001201E   888 0001:00012023
   890 0001:00012048   891 0001:00012072   892 0001:00012091   893 0001:0001209E
   894 0001:000120A3   896 0001:000120AC   897 0001:000120C1   899 0001:000120C7
   900 0001:000120DC   901 0001:000120EC   903 0001:000120FC   904 0001:00012102
   905 0001:00012108   906 0001:0001210E   910 0001:00012150   911 0001:0001215C
   912 0001:00012172   916 0001:0001217C   917 0001:0001218B   918 0001:000121A6
   922 0001:000121AC   923 0001:000121BB   924 0001:000121D6   928 0001:000121DC
   929 0001:000121E8   930 0001:000121FE   938 0001:00012208   939 0001:0001220B
   940 0001:00012221   943 0001:00012278   944 0001:00012281   945 0001:00012285
   946 0001:0001228D   947 0001:000122A0   949 0001:000122B1   950 0001:000122C2
   952 0001:000122C4   953 0001:000122DA   954 0001:000122EE   956 0001:00012301
   957 0001:00012305   959 0001:0001230C   960 0001:0001231B   961 0001:00012329
   962 0001:0001232F   965 0001:0001233F   966 0001:00012348   963 0001:00012365
   968 0001:0001237C   969 0001:0001238C   972 0001:000123A0   973 0001:000123A9
   974 0001:000123B2   981 0001:000123BC   982 0001:000123ED   983 0001:000123F5
   984 0001:000123FB   986 0001:00012402   987 0001:0001241A   989 0001:00012429
   990 0001:00012434   991 0001:00012446   992 0001:00012451   994 0001:00012453
   984 0001:00012456   995 0001:0001245C  1003 0001:0001248C  1004 0001:000124AE
  1006 0001:000124CA  1007 0001:000124D8  1008 0001:000124EA  1011 0001:00012533
  1013 0001:00012560  1015 0001:0001256D  1004 0001:00012570  1016 0001:00012579
  1018 0001:000125CC  1019 0001:000125D8  1020 0001:000125E5  1021 0001:000125F0
  1024 0001:000125F4  1025 0001:00012603  1026 0001:00012618  1038 0001:0001261C
  1039 0001:00012642  1040 0001:0001265F  1042 0001:00012669  1043 0001:00012678
  1044 0001:00012686  1045 0001:00012693  1046 0001:000126A8  1047 0001:000126B1
  1048 0001:000126BC  1049 0001:000126CA  1050 0001:000126DD  1052 0001:000126F0
  1053 0001:00012704  1054 0001:00012713  1055 0001:0001271E  1050 0001:00012721
  1057 0001:00012733  1059 0001:00012746  1061 0001:0001275D  1065 0001:00012782
  1066 0001:00012792  1067 0001:00012798  1076 0001:000127D0  1077 0001:000127F3
  1079 0001:000127F9  1080 0001:00012810  1082 0001:00012816  1083 0001:0001282D
  1084 0001:0001283D  1086 0001:0001284C  1089 0001:0001285E  1091 0001:00012863
  1092 0001:0001286F  1093 0001:00012898  1095 0001:000128A0  1096 0001:000128A5
  1100 0001:000128DC  1101 0001:000128E8  1102 0001:000128FE  1108 0001:00012908
  1109 0001:0001292D  1110 0001:00012933  1113 0001:00012939  1114 0001:00012947
  1116 0001:00012958  1125 0001:0001297C  1126 0001:00012985  1127 0001:0001298D
  1129 0001:0001299A  1131 0001:000129B7  1132 0001:000129C8  1133 0001:000129D9
  1135 0001:000129F9  1136 0001:00012A0C  1138 0001:00012A15  1139 0001:00012A26
  1140 0001:00012A3E  1142 0001:00012A49  1143 0001:00012A52  1144 0001:00012A60
  1145 0001:00012A69  1146 0001:00012A77  1147 0001:00012A80  1149 0001:00012A8A
  1129 0001:00012A8D  1150 0001:00012A96  1151 0001:00012AA7  1153 0001:00012AB2
  1154 0001:00012ABB  1155 0001:00012AC3  1165 0001:00012AC8  1166 0001:00012AD4
  1167 0001:00012ADA  1170 0001:00012AED  1171 0001:00012B03  1172 0001:00012B09
  1174 0001:00012B11  1176 0001:00012B1A  1178 0001:00012B32  1180 0001:00012B4C
  1181 0001:00012B5A  1182 0001:00012B6C  1184 0001:00012B7C  1176 0001:00012B7F
  1186 0001:00012B84  1188 0001:00012B88  1189 0001:00012B97  1190 0001:00012BA5
  1192 0001:00012BC6  1193 0001:00012BCC  1195 0001:00012BDA  1196 0001:00012BE6
  1201 0001:00012BEC  1202 0001:00012BF8  1203 0001:00012BFC  1204 0001:00012C02
  1206 0001:00012C08  1208 0001:00012C13  1209 0001:00012C17  1211 0001:00012C19
  1204 0001:00012C22  1213 0001:00012C28  1216 0001:00012C30  1217 0001:00012C3D
  1218 0001:00012C48  1219 0001:00012C69  1228 0001:00012C88  1229 0001:00012CAD
  1230 0001:00012CB8  1231 0001:00012CC1  1233 0001:00012CCE  1234 0001:00012CE0
  1235 0001:00012CE8  1238 0001:00012CFB  1239 0001:00012D03  1240 0001:00012D11
  1241 0001:00012D20  1244 0001:00012D33  1245 0001:00012D3E  1246 0001:00012D53
  1248 0001:00012D5D  1249 0001:00012D72  1250 0001:00012D89  1251 0001:00012D98
  1252 0001:00012DA8  1253 0001:00012DB7  1254 0001:00012DC7  1255 0001:00012DD6
  1256 0001:00012DE6  1257 0001:00012DF5  1258 0001:00012E05  1259 0001:00012E14
  1242 0001:00012E27  1264 0001:00012E44  1236 0001:00012E54  1268 0001:00012E71
  1270 0001:00012E81  1273 0001:00012F48  1274 0001:00012F4F  1275 0001:00012F57
  1282 0001:00012F5C  1290 0001:00012F80  1291 0001:00012F88  1292 0001:00012F96
  1294 0001:00012FB5  1295 0001:00012FC6  1297 0001:00012FD3  1298 0001:00012FDB
  1299 0001:00012FE3  1300 0001:00012FF1  1302 0001:0001301D  1303 0001:00013026
  1305 0001:00013052  1306 0001:0001305B  1307 0001:00013079  1308 0001:00013082
  1309 0001:000130A0  1312 0001:000130DD  1315 0001:000130ED  1292 0001:000130F0
  1317 0001:00013106  1319 0001:00013116  1332 0001:000131E4  1333 0001:0001320F
  1334 0001:00013217  1336 0001:0001322A  1338 0001:00013233  1340 0001:00013252
  1341 0001:00013260  1342 0001:00013271  1344 0001:0001328E  1350 0001:0001329E
  1351 0001:000132A7  1352 0001:000132B7  1353 0001:000132C0  1356 0001:000132D0
  1357 0001:000132DE  1359 0001:000132E4  1360 0001:000132F5  1361 0001:000132FB
  1365 0001:00013317  1369 0001:0001335C  1370 0001:0001336B  1371 0001:00013383
  1375 0001:00013388  1376 0001:00013397  1377 0001:000133AF  1381 0001:000133B4
  1382 0001:000133C3  1383 0001:000133DB  1387 0001:000133E0  1388 0001:000133EF
  1389 0001:00013405  1393 0001:0001340C  1394 0001:0001341B  1395 0001:00013433
  1407 0001:00013438  1408 0001:00013441  1409 0001:00013456  1410 0001:00013464
  1412 0001:0001347C  1414 0001:00013496  1415 0001:000134A7  1416 0001:000134C8
  1418 0001:000134D8  1410 0001:000134DB  1419 0001:000134E0  1421 0001:000134E4
  1422 0001:000134ED  1423 0001:000134FC  1424 0001:0001350A  1425 0001:0001353C
  1426 0001:00013549  1428 0001:0001355D  1430 0001:0001356E  1432 0001:00013577
  1433 0001:00013588  1434 0001:0001358E  1436 0001:00013598  1439 0001:000135A5
  1440 0001:000135AD  1426 0001:000135B0  1441 0001:000135B6  1443 0001:000135CC
  1444 0001:000135E4  1441 0001:000135E7  1446 0001:000135F9  1448 0001:00013609
  1462 0001:0001370C  1463 0001:00013718  1464 0001:00013725  1465 0001:0001372E
  1468 0001:00013741  1470 0001:00013759  1471 0001:00013769  1472 0001:00013774
  1468 0001:00013777  1474 0001:0001377C  1475 0001:0001378B  1476 0001:00013794
  1477 0001:0001379D  1478 0001:000137AA  1484 0001:000137B0  1485 0001:000137B9
  1487 0001:000137C2  1488 0001:000137CB  1491 0001:000137DE  1493 0001:000137F6
  1494 0001:00013806  1496 0001:00013814  1497 0001:0001381C  1499 0001:0001381E
  1491 0001:00013821  1501 0001:00013826  1504 0001:00013835  1505 0001:0001383D
  1511 0001:00013844  1512 0001:0001384D  1514 0001:00013856  1515 0001:0001385F
  1518 0001:00013872  1520 0001:0001388A  1521 0001:0001389A  1523 0001:000138A8
  1524 0001:000138B0  1525 0001:000138B8  1527 0001:000138BA  1518 0001:000138BD
  1529 0001:000138C2  1532 0001:000138D1  1533 0001:000138D9  1538 0001:000138E0
  1539 0001:000138E9  1540 0001:000138EE  1541 0001:000138F7  1543 0001:0001390F
  1544 0001:0001391F  1545 0001:00013931  1541 0001:00013934  1546 0001:00013939
  1547 0001:0001393E  1553 0001:00013948  1554 0001:00013957  1555 0001:00013960
  1556 0001:00013971  1557 0001:0001397C  1559 0001:00013982  1560 0001:00013991
  1561 0001:0001399A  1562 0001:000139A3  1563 0001:000139AC  1565 0001:000139B9
  1568 0001:000139C0  1569 0001:000139CC  1570 0001:000139D9  1573 0001:000139E0
  1574 0001:000139EC  1575 0001:000139F9  1602 0001:00013A00  1603 0001:00013A04
  1604 0001:00013A33  1607 0001:00013A3C  1608 0001:00013A40  1609 0001:00013A44
  1610 0001:00013A4E  1611 0001:00013A58  1612 0001:00013A64  1613 0001:00013A7E
  1614 0001:00013A87  1615 0001:00013A92  1616 0001:00013AA1  1617 0001:00013AAE
  1618 0001:00013AB2  1621 0001:00013AB8  1622 0001:00013ABB  1623 0001:00013AC3
  1624 0001:00013ACB  1625 0001:00013AD3  1626 0001:00013ADB  1627 0001:00013AE3
  1628 0001:00013AEB  1629 0001:00013AF3  1630 0001:00013AFB  1631 0001:00013B03
  1632 0001:00013B0A  1635 0001:00013B0C  1636 0001:00013B1F  1638 0001:00013B3A
  1639 0001:00013B5C  1641 0001:00013B72  1642 0001:00013B86  1644 0001:00013B8F
  1645 0001:00013B96  1649 0001:00013BA7  1654 0001:00013BC8  1655 0001:00013BE1
  1657 0001:00013C04  1658 0001:00013C15  1660 0001:00013C2A  1661 0001:00013C39
  1662 0001:00013C40  1664 0001:00013C47  1666 0001:00013C56  1667 0001:00013C78
  1669 0001:00013C81  1670 0001:00013C88  1674 0001:00013C8F  1676 0001:00013C9E
  1677 0001:00013CAD  1679 0001:00013CBD  1680 0001:00013CC5  1681 0001:00013CF9
  1683 0001:00013D02  1684 0001:00013D09  1688 0001:00013D10  1690 0001:00013D33
  1691 0001:00013D55  1692 0001:00013D6B  1693 0001:00013D7F  1695 0001:00013D8C
  1696 0001:00013D9D  1697 0001:00013DA4  1698 0001:00013DAB  1700 0001:00013DCE
  1701 0001:00013DF0  1703 0001:00013DFD  1704 0001:00013E1D  1706 0001:00013E39
  1707 0001:00013E60  1708 0001:00013E71  1709 0001:00013E7A  1715 0001:00013E81
  1716 0001:00013E8A  1719 0001:00013E94  1722 0001:00013ECC  1723 0001:00013EDF
  1725 0001:00013F07  1726 0001:00013F29  1728 0001:00013F3F  1729 0001:00013F53
  1731 0001:00013F5C  1732 0001:00013F6D  1736 0001:00013F74  1739 0001:00013F94
  1740 0001:00013FA7  1742 0001:00013FBF  1743 0001:00013FE1  1745 0001:00013FEA
  1748 0001:00013FF1  1751 0001:00014014  1752 0001:00014017  1754 0001:00014020
  1755 0001:0001402A  1758 0001:00014075  1760 0001:00014078  1761 0001:0001409D
  1766 0001:000140A8  1767 0001:000140BA  1768 0001:000140CC  1769 0001:000140DE
  1770 0001:000140F0  1771 0001:00014102  1772 0001:00014114  1799 0001:00014144
  1800 0001:0001414B  1802 0001:00014154  1803 0001:00014158  1805 0001:0001415D
  1806 0001:0001416B  1811 0001:000141D4  1813 0001:000141DD  1815 0001:000141E3
  1817 0001:000141EA  1820 0001:000141F4  1821 0001:000141F7  1823 0001:0001420C
  1825 0001:00014215  1826 0001:0001421F  1828 0001:00014233  1830 0001:0001423C
  1831 0001:00014246  1832 0001:00014266  1834 0001:0001427D  1836 0001:00014286
  1837 0001:00014290  1839 0001:000142A4  1841 0001:000142AD  1842 0001:000142B7
  1845 0001:000142DA  1848 0001:000142EC  1849 0001:000142EF  1850 0001:000142F7
  1851 0001:00014307  1852 0001:00014317  1853 0001:00014327  1854 0001:00014337
  1855 0001:00014347  1857 0001:00014357  1858 0001:00014362  1859 0001:0001436D
  1861 0001:00014378  1862 0001:00014394  1865 0001:00014398  1866 0001:000143B2
  1868 0001:000143C9  1869 0001:000143EE  1872 0001:00014401  1875 0001:0001441C
  1876 0001:00014441  1877 0001:00014454  1878 0001:00014480  1881 0001:00014493
  1883 0001:000144AA  1884 0001:000144CF  1887 0001:000144E2  1889 0001:000144F9
  1890 0001:0001451E  1893 0001:00014531  1895 0001:00014548  1896 0001:0001456D
  1899 0001:00014580  1901 0001:00014597  1902 0001:000145BC  1904 0001:000145CF
  1906 0001:000145F8  1907 0001:00014632  1908 0001:0001463F  1910 0001:0001464A
  1911 0001:00014660  1914 0001:00014669  1915 0001:0001466D  1916 0001:0001467E
  1917 0001:00014687  1920 0001:00014693  1922 0001:000146A2  1924 0001:000146B0
  1925 0001:000146B4  1926 0001:000146BF  1928 0001:000146CD  1929 0001:000146D2
  1930 0001:000146E4  1931 0001:00014702  1932 0001:00014714  1933 0001:00014726
  1935 0001:00014735  1936 0001:00014743  1937 0001:0001475B  1938 0001:0001475F
  1940 0001:00014772  1942 0001:00014777  1944 0001:0001478E  1946 0001:0001479E
  1947 0001:000147AA  1951 0001:000147B3  1952 0001:000147BB  1955 0001:000147C2
  1956 0001:000147CA  1969 0001:00014818  1970 0001:0001481E  1972 0001:00014827
  1973 0001:0001482E  1974 0001:0001483C  1976 0001:0001484B  1977 0001:00014851
  1978 0001:0001485F  1981 0001:00014876  1985 0001:0001488D  1988 0001:0001489C
  1989 0001:000148B6  1992 0001:000148C0  1993 0001:000148D8  1994 0001:000148EA
  1995 0001:000148FC  1996 0001:00014906  1997 0001:00014913  1998 0001:00014925
  1999 0001:0001492F  2000 0001:0001493C  2001 0001:0001494E  2002 0001:00014962
  2003 0001:0001496F  2004 0001:00014983  2005 0001:00014993  2006 0001:000149A9
  2007 0001:000149C2  2009 0001:000149D5  2010 0001:000149DC  2013 0001:000149FC
  2014 0001:00014A0D  2015 0001:00014A14  2016 0001:00014A1B  2017 0001:00014A2E
  2018 0001:00014A39  2019 0001:00014A44  2020 0001:00014A4F  2021 0001:00014A5A
  2022 0001:00014A65  2023 0001:00014A70  2024 0001:00014A7E  2027 0001:00014A90
  2028 0001:00014A9F  2029 0001:00014AAA  2037 0001:00014AB0  2038 0001:00014ABF
  2039 0001:00014AC4  2040 0001:00014ACD  2042 0001:00014AD3  2043 0001:00014AE4
  2045 0001:00014AEA  2046 0001:00014AF5  2047 0001:00014AFB  2050 0001:00014B07
  2052 0001:00014B11  2053 0001:00014B15  2055 0001:00014B1E  2057 0001:00014B36
  2058 0001:00014B46  2060 0001:00014B5A  2061 0001:00014B5E  2063 0001:00014B6A
  2055 0001:00014B6D  2065 0001:00014B72  2067 0001:00014B78  2068 0001:00014B86
  2070 0001:00014BA0  2074 0001:00014BAA  2080 0001:00014BB4  2081 0001:00014BD3
  2082 0001:00014BE1  2083 0001:00014BF2  2085 0001:00014BF8  2086 0001:00014C09
  2087 0001:00014C0F  2089 0001:00014C16  2092 0001:00014C29  2093 0001:00014C3D
  2100 0001:00014C64  2101 0001:00014C83  2102 0001:00014C88  2104 0001:00014CA2
  2105 0001:00014CAD  2106 0001:00014CBE  2108 0001:00014CC4  2109 0001:00014CD2
  2110 0001:00014CD8  2112 0001:00014CE9  2114 0001:00014CEF  2117 0001:00014D00
  2121 0001:00014D24  2122 0001:00014D49  2123 0001:00014D4D  2124 0001:00014D55
  2125 0001:00014D62  2126 0001:00014D70  2127 0001:00014D94  2129 0001:00014DC1
  2131 0001:00014DCE  2132 0001:00014DF0  2142 0001:00014E38  2143 0001:00014E5B
  2144 0001:00014E72  2145 0001:00014E80  2146 0001:00014E91  2148 0001:00014E97
  2150 0001:00014E9D  2151 0001:00014EAF  2155 0001:00014EC2  2156 0001:00014ED3
  2157 0001:00014ED9  2162 0001:00014EE9  2163 0001:00014EFA  2164 0001:00014F00
  2166 0001:00014F0B  2168 0001:00014F13  2173 0001:00014F38  2174 0001:00014F44
  2176 0001:00014F58  2177 0001:00014F68  2179 0001:00014F6E  2180 0001:00014F77
  2182 0001:00014F87  2185 0001:00014F95  2200 0001:00014F9C  2201 0001:00014FA2
  2203 0001:00014FAF  2204 0001:00014FBD  2205 0001:00014FC1  2207 0001:00014FC6
  2209 0001:00014FDE  2210 0001:00014FEE  2212 0001:00014FF7  2213 0001:00014FFD
  2215 0001:00015010  2219 0001:00015016  2220 0001:0001501C  2222 0001:0001502B
  2224 0001:0001502F  2226 0001:00015035  2227 0001:00015041  2228 0001:00015045
  2230 0001:00015047  2207 0001:0001504A  2231 0001:0001504F  2233 0001:00015055
  2205 0001:00015058  2235 0001:00015062  2242 0001:00015068  2243 0001:0001506F
  2245 0001:00015078  2246 0001:00015086  2248 0001:0001509E  2249 0001:000150AE
  2251 0001:000150C0  2252 0001:000150CC  2253 0001:000150DF  2255 0001:000150E1
  2246 0001:000150E4  2257 0001:000150E9  2262 0001:000150F0  2263 0001:000150F4
  2264 0001:00015106  2265 0001:00015115  2266 0001:00015124  2267 0001:0001512F
  2268 0001:00015139  2269 0001:00015143  2270 0001:0001515A  2272 0001:00015160
  2273 0001:0001517A  2275 0001:0001518B  2278 0001:00015190  2279 0001:000151A4
  2280 0001:000151C6  2282 0001:000151E2  2283 0001:000151EC  2284 0001:00015206
  2286 0001:00015221  2287 0001:00015235  2288 0001:0001524F  2292 0001:00015262
  2293 0001:0001527C  2294 0001:0001528B  2297 0001:0001529B  2299 0001:000152BC
  2300 0001:000152E2  2301 0001:000152F1  2302 0001:000152F8  2311 0001:00015324
  2312 0001:00015328  2313 0001:00015349  2315 0001:00015350  2316 0001:00015370
  2317 0001:0001538C  2318 0001:00015393  2319 0001:000153A1  2322 0001:000153B2
  2323 0001:000153C3  2325 0001:000153D8  2326 0001:000153E6  2327 0001:000153F7
  2328 0001:00015405  2330 0001:00015413  2320 0001:00015416  2332 0001:00015427
  2333 0001:00015436  2335 0001:00015450  2337 0001:0001545F  2345 0001:00015484
  2346 0001:000154A6  2347 0001:000154BD  2348 0001:000154C4  2349 0001:000154D2
  2350 0001:000154E0  2351 0001:000154F1  2353 0001:000154FB  2354 0001:0001550C
  2355 0001:0001551A  2356 0001:00015528  2357 0001:00015539  2358 0001:0001553F
  2359 0001:0001554D  2360 0001:0001555E  2361 0001:00015564  2362 0001:00015572
  2363 0001:0001557A  2364 0001:00015580  2367 0001:00015598  2369 0001:000155A7
  2375 0001:000155D0  2376 0001:000155DC  2378 0001:000155F0  2379 0001:00015600
  2381 0001:00015606  2382 0001:0001560F  2384 0001:0001561F  2387 0001:0001562D
  2402 0001:00015634  2403 0001:00015657  2404 0001:00015676  2405 0001:0001568A
  2407 0001:000156A1  2408 0001:000156B5  2410 0001:000156BF  2412 0001:000156CB
  2413 0001:000156D6  2414 0001:000156E4  2415 0001:000156ED  2417 0001:000156FC
  2418 0001:0001570D  2421 0001:00015726  2426 0001:0001573F  2427 0001:0001574A
  2428 0001:00015772  2429 0001:00015783  2434 0001:0001578C  2435 0001:0001579D
  2437 0001:000157A3  2438 0001:000157B7  2439 0001:000157CB  2440 0001:000157D1
  2441 0001:000157E2  2444 0001:000157EA  2451 0001:0001581C  2452 0001:0001583B
  2453 0001:00015841  2455 0001:00015845  2456 0001:00015850  2457 0001:00015866
  2459 0001:0001586E  2460 0001:0001587C  2461 0001:00015882  2464 0001:00015888
  2465 0001:0001588C  2466 0001:00015892  2471 0001:000158B8  2472 0001:000158BC
  2473 0001:000158CC  2474 0001:000158DA  2476 0001:000158F1  2477 0001:000158FE
  2474 0001:00015901  2479 0001:00015914  2481 0001:0001592C  2489 0001:00015930
  2490 0001:00015950  2491 0001:00015964  2493 0001:0001596E  2494 0001:00015977
  2495 0001:0001598D  2497 0001:000159AC  2498 0001:000159BD  2500 0001:000159DD
  2501 0001:000159EE  2502 0001:00015A02  2504 0001:00015A0C  2505 0001:00015A20
  2507 0001:00015A26  2508 0001:00015A34  2509 0001:00015A48  2511 0001:00015A4E
  2512 0001:00015A5B  2514 0001:00015A6B  2515 0001:00015A82  2517 0001:00015A88
  2524 0001:00015A95  2495 0001:00015A98  2526 0001:00015AA1  2528 0001:00015AC8
  2529 0001:00015AD7  2530 0001:00015AE3  2531 0001:00015AF0  2532 0001:00015AF6
  2533 0001:00015B04  2534 0001:00015B14  2535 0001:00015B1A  2537 0001:00015B23
  2539 0001:00015B3A  2541 0001:00015B50  2546 0001:00015B54  2547 0001:00015B70
  2548 0001:00015B7B  2551 0001:00015B9C  2552 0001:00015BAB  2553 0001:00015BB3
  2557 0001:00015BB8  2558 0001:00015BC7  2559 0001:00015BCF  2562 0001:00015BD4
  2563 0001:00015BF9  2564 0001:00015C01  2567 0001:00015C24  2568 0001:00015C33
  2569 0001:00015C3B  2572 0001:00015C40  2573 0001:00015C4C  2574 0001:00015C51
  2578 0001:00015C58  2579 0001:00015C67  2580 0001:00015C6F  2583 0001:00015C74
  2584 0001:00015C83  2585 0001:00015C8B  2588 0001:00015C90  2589 0001:00015C9F
  2590 0001:00015CA7  2593 0001:00015CAC  2594 0001:00015CB8  2595 0001:00015CC5
  2599 0001:00015CCC  2600 0001:00015CD8  2601 0001:00015CE5  2604 0001:00015CEC
  2605 0001:00015CF8  2606 0001:00015D05  2610 0001:00015D0C  2611 0001:00015D18
  2612 0001:00015D25  2616 0001:00015D2C  2617 0001:00015D38  2618 0001:00015D45
  2621 0001:00015D4C  2622 0001:00015D58  2623 0001:00015D65  2626 0001:00015D6C
  2627 0001:00015D78  2628 0001:00015D85  2632 0001:00015D8C  2633 0001:00015D98
  2634 0001:00015DA5  2638 0001:00015DAC  2639 0001:00015DB8  2640 0001:00015DC5
  2644 0001:00015DCC  2645 0001:00015DDB  2646 0001:00015DE0  2647 0001:00015DE6
  2650 0001:00015DF0  2651 0001:00015DFC  2652 0001:00015E09  2658 0001:00015E10
  2659 0001:00015E2B  2660 0001:00015E34  2661 0001:00015E3D  2662 0001:00015E4B
  2667 0001:00015E6C  2668 0001:00015E7B  2669 0001:00015E88  2672 0001:00015E9C
  2673 0001:00015EAB  2674 0001:00015EB8  2677 0001:00015ECC  2678 0001:00015EDB
  2679 0001:00015EE8  2682 0001:00015EFC  2683 0001:00015F0B  2684 0001:00015F18
  2689 0001:00015F2C  2690 0001:00015F47  2691 0001:00015F54  2692 0001:00015F63
  2693 0001:00015F68  2699 0001:00015F88  2700 0001:00015FAA  2702 0001:00015FBC
  2704 0001:00015FC6  2706 0001:00015FE5  2707 0001:00015FF6  2709 0001:00016010
  2710 0001:0001601E  2713 0001:0001605F  2704 0001:00016062  2714 0001:0001606B
  2716 0001:00016074  2717 0001:00016080  2718 0001:00016098  2720 0001:000160AA
  2724 0001:000160B8  2725 0001:000160CD  2726 0001:000160E5  2729 0001:000160F0
  2741 0001:00016190  2742 0001:000161A6  2744 0001:000161D5  2745 0001:000161FE
  2747 0001:00016211  2748 0001:00016234  2749 0001:00016240  2751 0001:00016250
  2753 0001:0001625B  2754 0001:00016281  2755 0001:00016290  2756 0001:000162B9
  2759 0001:000162CE  2762 0001:000162DB  2763 0001:000162E6  2765 0001:00016348
  2766 0001:00016364  2767 0001:0001636D  2768 0001:00016381  2770 0001:0001638D
  2771 0001:00016393  2773 0001:0001639E  2776 0001:000163A9  2777 0001:000163B1
  2778 0001:000163B8  2781 0001:000163DC  2782 0001:000163E3  2783 0001:000163EB
  2784 0001:000163F2  2785 0001:000163FA  2788 0001:00016400  2789 0001:00016418
  2790 0001:00016420  2793 0001:00016440  2794 0001:00016451  2795 0001:00016467
  2796 0001:00016471  2798 0001:00016495  2799 0001:0001649F  2800 0001:000164AD
  2803 0001:000164C0  2804 0001:000164D0  2805 0001:000164DE  2808 0001:000164F4
  2809 0001:00016508  2811 0001:00016510  2812 0001:00016525  2814 0001:00016538
  2815 0001:00016556  2817 0001:0001656A  2818 0001:00016580  2819 0001:00016595
  2820 0001:0001659D  2822 0001:000165A3  2825 0001:000165A8  2826 0001:000165B8
  2827 0001:000165C6  2830 0001:000165DC  2831 0001:000165E4  2832 0001:000165F9
  2833 0001:0001660C  2834 0001:0001662A  2835 0001:0001663E  2836 0001:00016654
  2837 0001:00016669  2838 0001:00016671  2840 0001:00016677  2843 0001:0001667C
  2844 0001:000166A2  2845 0001:000166B0  2848 0001:000166C7  2849 0001:000166CF
  2851 0001:000166ED  2852 0001:00016705  2853 0001:0001670D  2856 0001:00016713
  2859 0001:00016738  2860 0001:00016748  2861 0001:00016756  2864 0001:0001676C
  2865 0001:00016774  2866 0001:00016789  2867 0001:0001679C  2868 0001:000167BA
  2869 0001:000167CE  2870 0001:000167E4  2871 0001:000167F9  2872 0001:00016801
  2874 0001:00016807  2877 0001:0001680C  2878 0001:00016816  2879 0001:00016824
  2882 0001:00016831  2883 0001:00016836  2884 0001:00016854  2885 0001:00016868
  2886 0001:0001687E  2888 0001:00016893  2891 0001:0001689C  2892 0001:000168AC
  2893 0001:000168BA  2896 0001:000168D0  2897 0001:000168D8  2898 0001:000168ED
  2899 0001:00016900  2900 0001:0001691E  2901 0001:00016932  2902 0001:00016948
  2903 0001:0001695D  2904 0001:00016965  2906 0001:0001696B  2909 0001:00016970
  2910 0001:00016982  2911 0001:0001698A  2912 0001:00016998  2913 0001:000169A6
  2916 0001:000169BC  2918 0001:000169EF  2919 0001:00016A03  2920 0001:00016A19
  2921 0001:00016A2E  2922 0001:00016A36  2927 0001:00016A4B  2928 0001:00016A50
  2931 0001:00016A58  2932 0001:00016A68  2934 0001:00016A76  2938 0001:00016A89
  2939 0001:00016A91  2940 0001:00016AAF  2941 0001:00016AC3  2942 0001:00016AD9
  2943 0001:00016AEE  2944 0001:00016AF6  2946 0001:00016AFC  2949 0001:00016B04
  2950 0001:00016B0D  2951 0001:00016B1B  2954 0001:00016B2B  2956 0001:00016B4D
  2959 0001:00016B53  2960 0001:00016B5C  2962 0001:00016B72  2965 0001:00016B76
  2968 0001:00016B80  2969 0001:00016B89  2970 0001:00016B97  2973 0001:00016BA7
  2974 0001:00016BB0  2976 0001:00016BC6  2978 0001:00016BCA  2981 0001:00016BD4
  2982 0001:00016BDD  2983 0001:00016BEB  2986 0001:00016BFB  2988 0001:00016C1D
  2991 0001:00016C23  2992 0001:00016C2C  2994 0001:00016C42  2997 0001:00016C46
  3000 0001:00016C50  3001 0001:00016C59  3002 0001:00016C67  3005 0001:00016C77
  3007 0001:00016C99  3010 0001:00016C9F  3011 0001:00016CA8  3013 0001:00016CBE
  3016 0001:00016CC2  3019 0001:00016CCC  3020 0001:00016CD5  3022 0001:00016CE3
  3026 0001:00016CF3  3027 0001:00016D09  3030 0001:00016D0F  3031 0001:00016D18
  3033 0001:00016D2E  3036 0001:00016D32  3039 0001:00016D3C  3040 0001:00016D45
  3041 0001:00016D53  3044 0001:00016D63  3046 0001:00016D85  3049 0001:00016D8B
  3050 0001:00016D94  3052 0001:00016DAA  3055 0001:00016DAE  3058 0001:00016DB8
  3059 0001:00016DC1  3060 0001:00016DCF  3063 0001:00016DDF  3064 0001:00016DF5
  3067 0001:00016DFB  3068 0001:00016E04  3070 0001:00016E1A  3073 0001:00016E1E
  3076 0001:00016E28  3077 0001:00016E31  3078 0001:00016E3F  3081 0001:00016E4F
  3082 0001:00016E65  3085 0001:00016E6B  3086 0001:00016E74  3089 0001:00016EA9
  3092 0001:00016EAD  3095 0001:00016EB4  3096 0001:00016EC0  3097 0001:00016EC4
  3099 0001:00016EE1  3100 0001:00016EE5  3103 0001:00016EEC  3104 0001:00016EF5
  3105 0001:00016F10  3112 0001:00016F18  3113 0001:00016F24  3114 0001:00016F2F
  3115 0001:00016F37  3118 0001:00016F3C  3119 0001:00016F48  3120 0001:00016F53
  3121 0001:00016F5B  3124 0001:00016F60  3125 0001:00016F7B  3126 0001:00016F88
  3127 0001:00016FA0  3128 0001:00016FB4  3129 0001:00016FC4  3130 0001:00016FD2
  3131 0001:00016FE6  3137 0001:0001700C  3138 0001:0001701B  3139 0001:0001702B
  3140 0001:00017037  3141 0001:00017041  3142 0001:0001704F  3144 0001:0001705D
  3143 0001:00017069  3145 0001:00017077  3147 0001:0001707D  3149 0001:00017089
  3150 0001:0001708F  3151 0001:0001709B  3152 0001:000170A3  3153 0001:000170B1
  3154 0001:000170B7  3157 0001:000170D0  3159 0001:000170E2  3162 0001:000170E8
  3163 0001:000170F9  3164 0001:00017105  3165 0001:00017118  3166 0001:00017126
  3169 0001:00017138  3170 0001:00017140  3171 0001:00017148  3172 0001:00017150
  3173 0001:0001715D  3174 0001:0001716F  3177 0001:00017174  3178 0001:0001717C
  3179 0001:00017184  3180 0001:0001718C  3181 0001:00017199  3182 0001:000171AB
  3185 0001:000171B0  3186 0001:000171B9  3187 0001:000171CB  3190 0001:000171D4
  3191 0001:000171E0  3192 0001:000171F1  3195 0001:000171F8  3196 0001:00017204
  3197 0001:00017212  3200 0001:00017218  3201 0001:00017221  3202 0001:00017233
  3207 0001:0001723C  3208 0001:00017245  3209 0001:00017250  3210 0001:0001725C
  3212 0001:00017262  3213 0001:0001726D  3210 0001:00017279  3215 0001:0001727F
  3218 0001:00017284  3219 0001:00017293  3220 0001:000172A1  3221 0001:000172AA
  3222 0001:000172CA  3223 0001:000172D4  3230 0001:000172D8  3231 0001:000172DC
  3232 0001:000172F6  3234 0001:00017305  3235 0001:00017315  3236 0001:00017325
  3238 0001:00017332  3253 0001:00017338  3254 0001:0001733F  3256 0001:0001734E
  3258 0001:00017361  3259 0001:0001736E  3263 0001:00017387  3264 0001:00017394
  3267 0001:000173A8  3268 0001:000173B6  3269 0001:000173B9  3270 0001:000173BC
  3271 0001:000173C5  3272 0001:000173CE  3273 0001:000173D7  3274 0001:000173E0
  3277 0001:000173E8  3278 0001:000173ED  3280 0001:000173FC  3281 0001:00017410
  3282 0001:00017424  3283 0001:00017438  3285 0001:0001744C  3292 0001:00017450
  3293 0001:00017457  3295 0001:00017466  3297 0001:00017479  3298 0001:00017487
  3299 0001:0001749B  3301 0001:000174A7  3302 0001:000174B0  3304 0001:000174B6
  3305 0001:000174C1  3307 0001:000174CC  3308 0001:000174D2  3309 0001:000174E6
  3311 0001:000174F7  3312 0001:00017508  3314 0001:00017513  3315 0001:0001751E
  3317 0001:00017529  3318 0001:0001752F  3319 0001:00017543  3324 0001:00017556
  3326 0001:0001756A  3328 0001:00017570  3329 0001:00017579  3332 0001:00017580
  3333 0001:00017587  3334 0001:0001758E  3337 0001:00017595  3340 0001:0001759C
  3341 0001:000175A8  3342 0001:000175B9  3345 0001:000175C0  3346 0001:000175DF
  3348 0001:000175FD  3349 0001:0001760E  3351 0001:00017616  3354 0001:00017638
  3355 0001:00017657  3357 0001:00017667  3358 0001:00017688  3359 0001:00017699
  3360 0001:000176A4  3362 0001:000176AE  3365 0001:000176D0  3366 0001:000176DC
  3368 0001:000176EA  3369 0001:000176F6  3370 0001:0001770A  3371 0001:00017716
  3373 0001:00017722  3374 0001:00017734  3376 0001:00017746  3378 0001:00017751
  3381 0001:00017758  3382 0001:00017764  3383 0001:0001776F  3385 0001:00017775
  3387 0001:00017781  3388 0001:0001778A  3390 0001:00017796  3391 0001:000177A5
  3393 0001:000177AF  3395 0001:000177C0  3398 0001:000177C4  3399 0001:000177D0
  3400 0001:000177E1  3403 0001:000177E8  3404 0001:000177F0  3405 0001:00017800
  3406 0001:0001780E  3407 0001:00017820  3408 0001:00017837  3410 0001:0001785B
  3412 0001:00017873  3418 0001:00017878  3419 0001:00017887  3420 0001:00017895
  3421 0001:000178A1  3422 0001:000178AA  3423 0001:000178D0  3424 0001:000178DA
  3431 0001:000178E0  3432 0001:000178E4  3433 0001:000178FE  3435 0001:0001790D
  3436 0001:0001791D  3437 0001:0001792D  3439 0001:0001793A  3442 0001:00017940
  3443 0001:0001795A  3445 0001:00017969  3446 0001:00017980  3447 0001:0001798D
  3449 0001:000179AE  3454 0001:000179D0  3455 0001:000179D7  3457 0001:000179E6
  3459 0001:000179FF  3460 0001:00017A0C  3464 0001:00017A25  3466 0001:00017A34
  3467 0001:00017A41  3471 0001:00017A53  3472 0001:00017A60  3476 0001:00017A74
  3477 0001:00017A82  3478 0001:00017A85  3479 0001:00017A88  3480 0001:00017A91
  3481 0001:00017A9A  3482 0001:00017AA3  3483 0001:00017AAC  3488 0001:00017AB4
  3489 0001:00017AC4  3491 0001:00017AD3  3493 0001:00017ADE  3494 0001:00017AE9
  3496 0001:00017AF4  3497 0001:00017AFA  3498 0001:00017B0B  3500 0001:00017B19
  3502 0001:00017B24  3503 0001:00017B2F  3505 0001:00017B3A  3506 0001:00017B40
  3507 0001:00017B51  3510 0001:00017B5F  3516 0001:00017B64  3517 0001:00017B6B
  3519 0001:00017B7A  3520 0001:00017B88  3521 0001:00017B9C  3523 0001:00017BA4
  3524 0001:00017BAD  3525 0001:00017BBE  3529 0001:00017BD6  3530 0001:00017BEA
  3533 0001:00017BFE  3536 0001:00017C04  3537 0001:00017C09  3539 0001:00017C18
  3540 0001:00017C2C  3541 0001:00017C40  3542 0001:00017C54  3544 0001:00017C68
  3551 0001:00017C6C  3552 0001:00017C73  3554 0001:00017C82  3556 0001:00017C91
  3557 0001:00017C9F  3558 0001:00017CB3  3560 0001:00017CBB  3561 0001:00017CBF
  3562 0001:00017CC8  3563 0001:00017CD9  3566 0001:00017CF1  3569 0001:00017CF7
  3570 0001:00017CFB  3572 0001:00017D01  3573 0001:00017D15  3576 0001:00017D29
  3578 0001:00017D30  3579 0001:00017D3A  3580 0001:00017D41  3581 0001:00017D57
  3582 0001:00017D5E  3583 0001:00017D65  3584 0001:00017D6C  3585 0001:00017D73
  3586 0001:00017D7A  3587 0001:00017D90  3588 0001:00017D97  3591 0001:00017D9C
  3592 0001:00017DA8  3593 0001:00017DB8  3595 0001:00017DC6  3596 0001:00017DD2
  3597 0001:00017DEC  3598 0001:00017DF8  3600 0001:00017E04  3601 0001:00017E1C
  3603 0001:00017E2E  3605 0001:00017E39  3623 0001:00017FC4  3624 0001:00017FDF
  3625 0001:00017FE8  3626 0001:00017FF1  3627 0001:00017FFA  3629 0001:00018004
  3630 0001:00018016  3633 0001:00018038  3634 0001:00018049  3635 0001:00018052
  3636 0001:0001805D  3637 0001:0001806B  3645 0001:00018080  3646 0001:0001808F
  3647 0001:000180A3  3648 0001:000180B1  3650 0001:000180C0  3651 0001:000180CB
  3653 0001:000180DA  3654 0001:000180F0  3655 0001:000180FE  3657 0001:0001810C
  3658 0001:0001811B  3660 0001:0001812B  3666 0001:00018134  3667 0001:00018143
  3668 0001:0001814F  3669 0001:0001815D  3670 0001:0001816B  3672 0001:00018171
  3673 0001:0001817C  3674 0001:0001818A  3676 0001:00018190  3677 0001:0001819E
  3679 0001:000181AC  3680 0001:000181B5  3682 0001:000181C2  3690 0001:000181C8
  3691 0001:000181D4  3692 0001:000181DE  3693 0001:000181EC  3695 0001:00018202
  3696 0001:00018210  3697 0001:0001821E  3699 0001:00018224  3700 0001:00018232
  3702 0001:00018240  3703 0001:00018249  3704 0001:00018256  3693 0001:00018259
  3705 0001:0001825E  3706 0001:00018266  3710 0001:0001826C  3711 0001:00018287
  3712 0001:00018290  3713 0001:000182AD  3714 0001:000182CA  3715 0001:000182DC
  3716 0001:000182EE  3719 0001:00018310  3720 0001:00018321  3721 0001:0001832C
  3722 0001:00018337  3723 0001:00018342  3724 0001:0001834D  3725 0001:0001835B
  3731 0001:00018370  3732 0001:0001837C  3733 0001:0001838A  3735 0001:00018390
  3736 0001:000183A4  3737 0001:000183B5  3739 0001:000183C3  3740 0001:000183D7
  3744 0001:000183E0  3745 0001:000183EF  3746 0001:000183F5  3748 0001:0001840D
  3749 0001:00018412  3756 0001:0001841C  3757 0001:00018428  3759 0001:00018441
  3760 0001:00018452  3762 0001:0001845D  3763 0001:00018463  3765 0001:00018465
  3757 0001:00018468  3766 0001:0001846D  3767 0001:00018474  3774 0001:0001847C
  3775 0001:00018488  3777 0001:000184A1  3778 0001:000184B2  3780 0001:000184BD
  3781 0001:000184C3  3783 0001:000184C5  3775 0001:000184C8  3784 0001:000184CD
  3785 0001:000184D4  3791 0001:000184DC  3792 0001:000184EB  3794 0001:00018509
  3795 0001:00018514  3796 0001:00018522  3797 0001:00018528  3799 0001:00018536
  3807 0001:0001853C  3808 0001:0001854B  3810 0001:00018569  3811 0001:00018577
  3813 0001:0001857D  3814 0001:0001858E  3815 0001:00018597  3818 0001:000185A5
  3821 0001:000185AC  3822 0001:000185B8  3823 0001:000185BE  3825 0001:000185D1
  3826 0001:000185D6  3831 0001:0001862C  3833 0001:0001863C

Line numbers for VA508AccessibilityManager(VA508AccessibilityManager.pas) segment .itext

  3828 0002:000004D8  3830 0002:000004EE

Line numbers for VA508AccessibilityCompileInfo(VA508AccessibilityCompileInfo.pas) segment .text

    77 0001:00018C7C    78 0001:00018C8F    79 0001:00018C98    80 0001:00018CAB
    81 0001:00018CE6    82 0001:00018CF8    83 0001:00018D02    84 0001:00018D0E
    87 0001:00018D30    88 0001:00018D4D    89 0001:00018D5B    90 0001:00018D68
    92 0001:00018D7A    93 0001:00018D83    95 0001:00018D8A    99 0001:00018D96
   102 0001:00018DB8   103 0001:00018DBB   104 0001:00018DC4   105 0001:00018DCE
   109 0001:00018DD0   111 0001:00018E03   113 0001:00018E0C   114 0001:00018E3B
   117 0001:00018E40   119 0001:00018E4D   120 0001:00018E60   121 0001:00018E7E
   122 0001:00018E9C   123 0001:00018EBA   124 0001:00018ED8   125 0001:00018EF6
   127 0001:00018F1F   128 0001:00018F2B   131 0001:00018F37   134 0001:00018F70
   135 0001:00018F7C   136 0001:00018F8F   137 0001:00018F99   138 0001:00018FA5
   139 0001:00018FAD   142 0001:00018FB4   143 0001:00018FC0   144 0001:00018FE3
   145 0001:00019007   150 0001:0001900C   151 0001:0001902E   152 0001:00019038

Line numbers for VA508AccessibilityCompileInfo(VA508AccessibilityCompileInfo.pas) segment .itext

   147 0002:000004F0   149 0002:00000508

Line numbers for VA508AccessibilityPE(VA508AccessibilityPE.pas) segment .text

   103 0001:00019F8C   104 0001:00019F98   105 0001:00019F9D   107 0001:00019FCE
   108 0001:00019FDC   110 0001:00019FE4   109 0001:00019FED   111 0001:0001A005
   113 0001:0001A01D   115 0001:0001A035   117 0001:0001A04F   118 0001:0001A05D
   120 0001:0001A05F   113 0001:0001A062   123 0001:0001A067   129 0001:0001A070
   130 0001:0001A079   131 0001:0001A086   132 0001:0001A08E   133 0001:0001A09D
   135 0001:0001A0B2   137 0001:0001A0C2   138 0001:0001A0C6   140 0001:0001A0C8
   133 0001:0001A0CB   141 0001:0001A0D0   149 0001:0001A0D8   150 0001:0001A0FB
   151 0001:0001A10A   152 0001:0001A118   153 0001:0001A126   154 0001:0001A12C
   157 0001:0001A139   159 0001:0001A14A   160 0001:0001A167   161 0001:0001A172
   157 0001:0001A175   164 0001:0001A188   166 0001:0001A198   169 0001:0001A1BC
   170 0001:0001A1DE   171 0001:0001A1F8   176 0001:0001A240   177 0001:0001A262
   178 0001:0001A277   179 0001:0001A27D   181 0001:0001A294   182 0001:0001A29F
   191 0001:0001A2D0   192 0001:0001A2D9   193 0001:0001A2E5   195 0001:0001A2F1
   196 0001:0001A2FD   200 0001:0001A30C   201 0001:0001A313   202 0001:0001A323
   203 0001:0001A348   204 0001:0001A36D   205 0001:0001A392   207 0001:0001A3B7
   219 0001:0001A454   220 0001:0001A479   222 0001:0001A486   223 0001:0001A48A
   224 0001:0001A4A7   227 0001:0001A4CC   228 0001:0001A4E6   229 0001:0001A4FF
   228 0001:0001A52E   234 0001:0001A538   235 0001:0001A552   236 0001:0001A56B
   235 0001:0001A58F   241 0001:0001A599   242 0001:0001A5B3   243 0001:0001A5CC
   242 0001:0001A5F7   248 0001:0001A5FE   249 0001:0001A618   250 0001:0001A62D
   249 0001:0001A64D   265 0001:0001A652   266 0001:0001A656   270 0001:0001A68C
   271 0001:0001A6BD   272 0001:0001A6CA   273 0001:0001A6DA   274 0001:0001A6E8
   275 0001:0001A6F1   281 0001:0001A730   282 0001:0001A739   285 0001:0001A763
   286 0001:0001A77D   287 0001:0001A783   289 0001:0001A793   292 0001:0001A79D
   293 0001:0001A7A5   296 0001:0001A7B0   297 0001:0001A7B9   299 0001:0001A7CB
   301 0001:0001A7D7   303 0001:0001A7E3   308 0001:0001A7EF   311 0001:0001A7F9
   314 0001:0001A814   315 0001:0001A81D   316 0001:0001A82D   317 0001:0001A836
   320 0001:0001A83F   322 0001:0001A846   325 0001:0001A850   326 0001:0001A85C
   327 0001:0001A86A   333 0001:0001A870   334 0001:0001A894   335 0001:0001A89C
   336 0001:0001A8B9   339 0001:0001A8DA   340 0001:0001A8F4   341 0001:0001A8FE
   344 0001:0001A93A   347 0001:0001A959   348 0001:0001A973   349 0001:0001A97B
   353 0001:0001A9BB   354 0001:0001A9D5   357 0001:0001A9E7   365 0001:0001AA2C
   366 0001:0001AA4D   367 0001:0001AA5C   368 0001:0001AA6A   371 0001:0001AA85
   372 0001:0001AA93   373 0001:0001AAAF   372 0001:0001AAC9   378 0001:0001AAD3
   379 0001:0001AAEF   381 0001:0001AAF8   383 0001:0001AB0D   384 0001:0001AB27
   385 0001:0001AB44   381 0001:0001AB47   387 0001:0001AB4C   388 0001:0001AB57
   390 0001:0001AB73   391 0001:0001AB81   392 0001:0001AB8A   393 0001:0001ABC3
   394 0001:0001ABCC   388 0001:0001ABCF   399 0001:0001ABD6   400 0001:0001ABEE
   405 0001:0001AC16   407 0001:0001AC26   416 0001:0001AC6C   417 0001:0001AC8B
   418 0001:0001AC90   419 0001:0001AC95   423 0001:0001ACAC   424 0001:0001ACB7
   425 0001:0001ACC8   426 0001:0001ACDA   429 0001:0001ACE2   433 0001:0001ACEF
   434 0001:0001ACFF   435 0001:0001AD0C   436 0001:0001AD22   440 0001:0001AD39
   442 0001:0001AD53   444 0001:0001AD71   445 0001:0001AD87   446 0001:0001ADA4
   447 0001:0001ADC1   448 0001:0001ADDE   451 0001:0001ADF9   440 0001:0001ADFC
   452 0001:0001AE05   453 0001:0001AE0D   616 0001:0001AE30   617 0001:0001AE39
   618 0001:0001AE41   624 0001:0001AE4C   625 0001:0001AE55   626 0001:0001AE5F
   629 0001:0001AE6C   630 0001:0001AE75   631 0001:0001AE7E   632 0001:0001AE93
   633 0001:0001AE9C   637 0001:0001AEA4   639 0001:0001AEAB   644 0001:0001AEB0
   645 0001:0001AED5   646 0001:0001AEE5   647 0001:0001AEEB   648 0001:0001AF24
   654 0001:0001AF54   655 0001:0001AF71   656 0001:0001AF80   657 0001:0001AF8E
   658 0001:0001AF9E   659 0001:0001AFB6   658 0001:0001AFD0   661 0001:0001AFE2
   663 0001:0001AFF2   666 0001:0001B018   667 0001:0001B037   668 0001:0001B04D
   676 0001:0001B070   677 0001:0001B08F   679 0001:0001B098   680 0001:0001B09C
   681 0001:0001B0B8   682 0001:0001B0CD   681 0001:0001B0F8   684 0001:0001B0FD
   685 0001:0001B101   688 0001:0001B130   689 0001:0001B139   690 0001:0001B143
   693 0001:0001B150   694 0001:0001B159   695 0001:0001B160   698 0001:0001B168
   699 0001:0001B171   700 0001:0001B17A   701 0001:0001B18F   702 0001:0001B198
   706 0001:0001B1A0   707 0001:0001B1AC   708 0001:0001B1BD   711 0001:0001B1C4
   712 0001:0001B1E5   713 0001:0001B1F0   714 0001:0001B1F8   715 0001:0001B236
   724 0001:0001B264   725 0001:0001B286   726 0001:0001B295   727 0001:0001B2A3
   728 0001:0001B2C1   730 0001:0001B2CA   731 0001:0001B2DF   730 0001:0001B2FF
   733 0001:0001B304   734 0001:0001B30F   736 0001:0001B327   737 0001:0001B335
   738 0001:0001B33E   739 0001:0001B377   740 0001:0001B380   734 0001:0001B383
   742 0001:0001B395   744 0001:0001B3A5   748 0001:0001B3E0   749 0001:0001B3FF
   750 0001:0001B415   755 0001:0001B438   756 0001:0001B441   757 0001:0001B44B
   760 0001:0001B458   761 0001:0001B45E   763 0001:0001B488   765 0001:0001B4A3
   767 0001:0001B4BE   769 0001:0001B4D9   771 0001:0001B4F4   773 0001:0001B50F

Line numbers for VA508AccessibilityPE(VA508AccessibilityPE.pas) segment .itext

   775 0002:00000570

Line numbers for VA508AccessibilityCompiler(VA508AccessibilityCompiler.pas) segment .text

   107 0001:0001B910   112 0001:0001B914   113 0001:0001B927   115 0001:0001B939
   116 0001:0001B94E   118 0001:0001B954   119 0001:0001B962   120 0001:0001B96C
   122 0001:0001B973   124 0001:0001B97D   127 0001:0001B9B0   128 0001:0001B9B7
   129 0001:0001B9C0   130 0001:0001B9C6   131 0001:0001B9CB   136 0001:0001B9D0
   137 0001:0001B9D4   138 0001:0001B9EB   139 0001:0001B9F6   144 0001:0001BA0C
   145 0001:0001BA18   146 0001:0001BA1E   148 0001:0001BA28   149 0001:0001BA35
   152 0001:0001BA4C   153 0001:0001BA76   154 0001:0001BA7C   155 0001:0001BAC2
   158 0001:0001BAF4   159 0001:0001BB13   160 0001:0001BB1E   162 0001:0001BB2E
   164 0001:0001BB3F   166 0001:0001BB5F   167 0001:0001BB7F   171 0001:0001BC05
   172 0001:0001BC1D   175 0001:0001BC35   177 0001:0001BC41   178 0001:0001BC4A
   182 0001:0001BC57   183 0001:0001BC67   186 0001:0001BFF8   187 0001:0001C007
   189 0001:0001C016   191 0001:0001C01D   195 0001:0001C024   196 0001:0001C033
   200 0001:0001C038   201 0001:0001C044   204 0001:0001C048   205 0001:0001C057
   206 0001:0001C05D   207 0001:0001C065   211 0001:0001C06C   212 0001:0001C07B
   213 0001:0001C081   214 0001:0001C089   217 0001:0001C090   218 0001:0001C099
   219 0001:0001C0B4   222 0001:0001C0BC   223 0001:0001C0D4   224 0001:0001C0E6
   225 0001:0001C0F3   226 0001:0001C0FD   229 0001:0001C11C   230 0001:0001C12D
   231 0001:0001C138   232 0001:0001C146   235 0001:0001C158   236 0001:0001C15F
   237 0001:0001C166   240 0001:0001C16C   241 0001:0001C173   242 0001:0001C17D
   243 0001:0001C186   245 0001:0001C193   246 0001:0001C1A5   247 0001:0001C1AD
   248 0001:0001C1B5   249 0001:0001C1BD   250 0001:0001C1C5   251 0001:0001C1CC
   252 0001:0001C1D3   253 0001:0001C1DA   254 0001:0001C1E2   267 0001:0001C1E8
   268 0001:0001C21E   270 0001:0001C23F   271 0001:0001C243   272 0001:0001C253
   273 0001:0001C266   275 0001:0001C26C   276 0001:0001C281   277 0001:0001C295
   282 0001:0001C2BD   283 0001:0001C2C1   285 0001:0001C330   286 0001:0001C34D
   287 0001:0001C35D   289 0001:0001C377   290 0001:0001C386   291 0001:0001C392
   293 0001:0001C3B1   294 0001:0001C3C2   297 0001:0001C410   298 0001:0001C42D
   291 0001:0001C430   300 0001:0001C439   301 0001:0001C442   302 0001:0001C44D
   305 0001:0001C4EC   306 0001:0001C513   307 0001:0001C51C   308 0001:0001C557
   311 0001:0001C580   312 0001:0001C5B3   313 0001:0001C5BC   314 0001:0001C5E7
   315 0001:0001C5ED   316 0001:0001C5F4   317 0001:0001C5FF   320 0001:0001C650
   321 0001:0001C683   322 0001:0001C68C   323 0001:0001C6B7   324 0001:0001C6BD
   325 0001:0001C6C4   326 0001:0001C6CF   329 0001:0001C724   330 0001:0001C746
   331 0001:0001C74F   332 0001:0001C75D   339 0001:0001C780   340 0001:0001C78F
   342 0001:0001C798   343 0001:0001C7A5   346 0001:0001C7B5   347 0001:0001C7C6
   348 0001:0001C7CC   352 0001:0001C7DA   355 0001:0001C7E0   356 0001:0001C813
   357 0001:0001C81C   358 0001:0001C84C   359 0001:0001C857   449 0001:0001C8C4
   450 0001:0001C8D1   451 0001:0001C8D7   452 0001:0001C8EA   455 0001:0001C8EF
   456 0001:0001C903   457 0001:0001C914   453 0001:0001C918   459 0001:0001C928
   464 0001:0001C930   465 0001:0001C93A   466 0001:0001C946   467 0001:0001C94F
   468 0001:0001C967   469 0001:0001C97D   470 0001:0001C984   473 0001:0001C98C
   474 0001:0001C9AA   476 0001:0001C9B3   477 0001:0001C9C7   478 0001:0001C9CD
   480 0001:0001C9DE   483 0001:0001CA00   484 0001:0001CA27   485 0001:0001CA55
   490 0001:0001CA98   491 0001:0001CABD   492 0001:0001CAC8   493 0001:0001CACF
   494 0001:0001CAF0   496 0001:0001CAF6   497 0001:0001CB17   499 0001:0001CB24
   501 0001:0001CB2A   502 0001:0001CB3F   503 0001:0001CB45   505 0001:0001CB73
   509 0001:0001CBF4   510 0001:0001CC1A   511 0001:0001CC37   512 0001:0001CC59
   513 0001:0001CC64   514 0001:0001CC72   519 0001:0001CC9C   520 0001:0001CCC3
   521 0001:0001CCCB   522 0001:0001CCE0   524 0001:0001CCE6   525 0001:0001CCE9
   527 0001:0001CCF1   526 0001:0001CCF4   528 0001:0001CD08   530 0001:0001CD29
   535 0001:0001CD64   536 0001:0001CD83   537 0001:0001CD94   539 0001:0001CD9A
   540 0001:0001CDAD   542 0001:0001CDBB   547 0001:0001CDDC   548 0001:0001CDFB
   549 0001:0001CE00   550 0001:0001CE11   551 0001:0001CE17   552 0001:0001CE28
   561 0001:0001CE4C   562 0001:0001CE71   563 0001:0001CE84   564 0001:0001CE8B
   565 0001:0001CE91   566 0001:0001CE95   567 0001:0001CE99   568 0001:0001CE9D
   569 0001:0001CEA5   570 0001:0001CEA9   573 0001:0001CEB3   574 0001:0001CECF
   576 0001:0001CED9   577 0001:0001CEE6   579 0001:0001CEF0   581 0001:0001CEFA
   583 0001:0001CF19   584 0001:0001CF1D   586 0001:0001CF34   588 0001:0001CF53
   589 0001:0001CF57   592 0001:0001CF6E   593 0001:0001CF8D   595 0001:0001CFAE
   596 0001:0001CFBE   598 0001:0001CFC2   600 0001:0001CFDA   602 0001:0001CFE0
   603 0001:0001CFEF   605 0001:0001D003   610 0001:0001D013   612 0001:0001D026
   613 0001:0001D02A   614 0001:0001D032   620 0001:0001D03B   622 0001:0001D04A
   623 0001:0001D04E   626 0001:0001D057   635 0001:0001D06A   636 0001:0001D07D
   640 0001:0001D083   642 0001:0001D094   644 0001:0001D0A7   645 0001:0001D0B4
   646 0001:0001D0E3   647 0001:0001D0EF   648 0001:0001D0F4   649 0001:0001D0FC
   652 0001:0001D100   571 0001:0001D103   654 0001:0001D117   662 0001:0001D1E8
   663 0001:0001D208   665 0001:0001D227   666 0001:0001D238   667 0001:0001D249
   669 0001:0001D261   670 0001:0001D29D   667 0001:0001D2A0   671 0001:0001D2A5
   663 0001:0001D2A8   672 0001:0001D2B1   680 0001:0001D330   681 0001:0001D37B
   682 0001:0001D389   685 0001:0001D3A4   686 0001:0001D3F6   687 0001:0001D40A
   689 0001:0001D413   690 0001:0001D41C   691 0001:0001D42D   692 0001:0001D435
   693 0001:0001D43C   694 0001:0001D456   695 0001:0001D46A   699 0001:0001D476
   700 0001:0001D48D   701 0001:0001D4A5   702 0001:0001D4D2   703 0001:0001D4DB
   706 0001:0001D4E6   707 0001:0001D4EF   708 0001:0001D504   709 0001:0001D518
   708 0001:0001D52C   710 0001:0001D531   713 0001:0001D53D   716 0001:0001D558
   718 0001:0001D56B   723 0001:0001D5C4   724 0001:0001D5F4   725 0001:0001D5F8
   726 0001:0001D606   728 0001:0001D618   729 0001:0001D625   730 0001:0001D62D
   732 0001:0001D63A   733 0001:0001D65B   734 0001:0001D667   735 0001:0001D675
   736 0001:0001D679   737 0001:0001D692   736 0001:0001D6B7   741 0001:0001D6BE
   742 0001:0001D6C9   743 0001:0001D6D7   745 0001:0001D6DD   746 0001:0001D6EE
   747 0001:0001D70B   752 0001:0001D728   753 0001:0001D72D   756 0001:0001D764
   757 0001:0001D77C   758 0001:0001D780   760 0001:0001D78D   762 0001:0001D79C
   763 0001:0001D7B8   765 0001:0001D7E5   769 0001:0001D80E   776 0001:0001D850
   777 0001:0001D86C   778 0001:0001D877   779 0001:0001D87F   780 0001:0001D883
   781 0001:0001D887   782 0001:0001D88B   783 0001:0001D892   784 0001:0001D8A5
   786 0001:0001D8AF   787 0001:0001D8BF   789 0001:0001D8E9   790 0001:0001D8EF
   791 0001:0001D8F9   793 0001:0001D8FF   794 0001:0001D90F   798 0001:0001D945
   799 0001:0001D95B   804 0001:0001DA50   805 0001:0001DA6A   807 0001:0001DA89
   808 0001:0001DA95   809 0001:0001DAB4   810 0001:0001DAC2   811 0001:0001DAD0
   813 0001:0001DAE7   815 0001:0001DAFA   805 0001:0001DAFD   816 0001:0001DB02
   819 0001:0001DB24   820 0001:0001DB39   822 0001:0001DB51   823 0001:0001DB6D
   825 0001:0001DB76   828 0001:0001DB92   831 0001:0001DBBC   832 0001:0001DBC2
   833 0001:0001DBCD   834 0001:0001DBDB   836 0001:0001DBF0   837 0001:0001DBFE
   839 0001:0001DC1A   842 0001:0001DC2C   844 0001:0001DC3F   853 0001:0001DC44
   854 0001:0001DC81   855 0001:0001DC92   856 0001:0001DCA3   857 0001:0001DCB4
   858 0001:0001DCD9   860 0001:0001DCE2   861 0001:0001DCEF   864 0001:0001DCF4
   865 0001:0001DCFE   866 0001:0001DD0C   868 0001:0001DD1D   869 0001:0001DD28
   870 0001:0001DD37   871 0001:0001DD3E   872 0001:0001DD44   875 0001:0001DD8A
   879 0001:0001DDDB   881 0001:0001DDED   883 0001:0001DE03   884 0001:0001DE16
   885 0001:0001DE24   886 0001:0001DE33   887 0001:0001DE41   888 0001:0001DE4C
   890 0001:0001DE8C   891 0001:0001DEBF   892 0001:0001DECC   893 0001:0001DEDA
   894 0001:0001DEE1   897 0001:0001DF22   900 0001:0001DF4D   901 0001:0001DF50
   904 0001:0001DF72   908 0001:0001E298   909 0001:0001E2B7   910 0001:0001E2C7
   926 0001:0001E2EC   927 0001:0001E31B   929 0001:0001E33A   930 0001:0001E34A
   931 0001:0001E35B   932 0001:0001E36B   934 0001:0001E374   935 0001:0001E37C
   936 0001:0001E392   935 0001:0001E3C4   937 0001:0001E3C9   940 0001:0001E3DD
   941 0001:0001E3E2   942 0001:0001E405   944 0001:0001E40F   945 0001:0001E41D
   947 0001:0001E42A   948 0001:0001E438   949 0001:0001E444   950 0001:0001E453
   951 0001:0001E461   952 0001:0001E469   953 0001:0001E474   954 0001:0001E489
   955 0001:0001E494   956 0001:0001E4AC   955 0001:0001E4CA   958 0001:0001E4DC
   962 0001:0001E4F9   965 0001:0001E509   966 0001:0001E51D   967 0001:0001E52E
   968 0001:0001E542   927 0001:0001E545   969 0001:0001E54E   971 0001:0001E56D
   972 0001:0001E57D   973 0001:0001E58E   975 0001:0001E59B   976 0001:0001E5AC
   977 0001:0001E5BD   978 0001:0001E5CD   979 0001:0001E5E0   980 0001:0001E5E8
   982 0001:0001E5F9   983 0001:0001E609   984 0001:0001E60F   985 0001:0001E622
   986 0001:0001E628   989 0001:0001E63A   991 0001:0001E667   993 0001:0001E699
   997 0001:0001E6AB   998 0001:0001E6B6   999 0001:0001E6BC  1001 0001:0001E6CD
   969 0001:0001E6D0  1002 0001:0001E6D9  1007 0001:0001E950  1008 0001:0001E96C
  1010 0001:0001E98E  1012 0001:0001E9B8  1013 0001:0001E9EE  1015 0001:0001E9FB
  1016 0001:0001EA09  1017 0001:0001EA25  1019 0001:0001EA2E  1020 0001:0001EA3C
  1021 0001:0001EA4A  1023 0001:0001EA66  1025 0001:0001EA78  1029 0001:0001EA98
  1033 0001:0001EAAB  1008 0001:0001EAAE  1034 0001:0001EAB7  1041 0001:0001EAF4
  1042 0001:0001EB12  1043 0001:0001EB20  1044 0001:0001EB4C  1045 0001:0001EB55
  1046 0001:0001EB6E  1047 0001:0001EB8A  1048 0001:0001EBA6  1049 0001:0001EBF1
  1050 0001:0001EC03  1051 0001:0001EC15  1053 0001:0001EC2A  1054 0001:0001EC3B
  1055 0001:0001EC4E  1056 0001:0001EC67  1059 0001:0001EC77  1060 0001:0001EC85
  1062 0001:0001EC9A  1063 0001:0001ECBB  1064 0001:0001ECDC  1066 0001:0001ECE8
  1067 0001:0001ECF3  1068 0001:0001ECFE  1070 0001:0001ED03  1071 0001:0001ED24
  1072 0001:0001ED48  1073 0001:0001ED55  1074 0001:0001ED62  1075 0001:0001ED6F
  1076 0001:0001ED7C  1060 0001:0001ED7F  1077 0001:0001ED88  1080 0001:0001ED95
  1081 0001:0001ED9C  1089 0001:0001EE40  1090 0001:0001EE63  1092 0001:0001EE70
  1093 0001:0001EE90  1094 0001:0001EEA0  1095 0001:0001EEAE  1096 0001:0001EEC0
  1097 0001:0001EEC5  1098 0001:0001EECA  1099 0001:0001EEDF  1101 0001:0001EEF6
  1102 0001:0001EF07  1103 0001:0001EF29  1104 0001:0001EF2C  1105 0001:0001EF2F
  1106 0001:0001EF40  1107 0001:0001EF62  1108 0001:0001EF65  1109 0001:0001EF68
  1110 0001:0001EF84  1111 0001:0001EF87  1112 0001:0001EFA3  1113 0001:0001EFA6
  1099 0001:0001EFA9  1114 0001:0001EFB2  1116 0001:0001EFC6  1117 0001:0001EFD1
  1118 0001:0001EFDC  1124 0001:0001F024  1125 0001:0001F03B  1126 0001:0001F042
  1127 0001:0001F04A  1128 0001:0001F052  1129 0001:0001F062  1131 0001:0001F091
  1132 0001:0001F09C  1133 0001:0001F0A7  1134 0001:0001F0B2  1136 0001:0001F0B9
  1137 0001:0001F0E8  1139 0001:0001F10F  1140 0001:0001F121  1141 0001:0001F133
  1142 0001:0001F145  1144 0001:0001F159  1145 0001:0001F16D  1146 0001:0001F181
  1147 0001:0001F197  1149 0001:0001F1A1  1150 0001:0001F1AA  1134 0001:0001F1AD
  1151 0001:0001F1B7  1156 0001:0001F214  1157 0001:0001F21B  1159 0001:0001F22D
  1160 0001:0001F23B  1161 0001:0001F26A  1162 0001:0001F276  1163 0001:0001F282
  1164 0001:0001F28F  1166 0001:0001F29C  1167 0001:0001F2A7  1168 0001:0001F2B2
  1169 0001:0001F2BD  1171 0001:0001F2CA  1174 0001:0001F2DE  1175 0001:0001F2E3
  1157 0001:0001F2E6  1176 0001:0001F2F0  1181 0001:0001F2F8  1182 0001:0001F2FE
  1183 0001:0001F319  1182 0001:0001F32F  1184 0001:0001F334  1185 0001:0001F33F
  1186 0001:0001F34A  1187 0001:0001F351  1188 0001:0001F357  1190 0001:0001F35C
  1191 0001:0001F393  1192 0001:0001F3A1  1195 0001:0001F3AA  1196 0001:0001F3B1
  1197 0001:0001F3B8  1198 0001:0001F3C4  1193 0001:0001F3CB  1200 0001:0001F3D7
  1201 0001:0001F3E3  1204 0001:0001F3F7  1206 0001:0001F406  1210 0001:0001F454
  1212 0001:0001F472

Line numbers for VA508AccessibilityCompiler(VA508AccessibilityCompiler.pas) segment .itext

  1207 0002:00000578  1209 0002:00000590

Line numbers for VA508ImageListLabelerPE(VA508ImageListLabelerPE.pas) segment .text

    85 0001:000200E4    86 0001:000200E7    87 0001:00020102    88 0001:0002011D
    89 0001:00020138    90 0001:00020153    91 0001:00020163   103 0001:000201EC
   104 0001:00020207   106 0001:00020214   107 0001:00020230   108 0001:0002024C
   115 0001:0002026C   116 0001:00020275   117 0001:00020282   118 0001:00020291
   120 0001:0002029D   121 0001:000202B0   124 0001:000202C0   125 0001:000202C9
   126 0001:000202D1   129 0001:000202D8   130 0001:000202E9   132 0001:000202F5
   133 0001:00020313   135 0001:0002031D   136 0001:0002032B   139 0001:00020340
   140 0001:0002034C   141 0001:00020359   147 0001:00020360   148 0001:0002036F
   149 0001:00020379   150 0001:0002039B   151 0001:000203B2   160 0001:000203B8
   161 0001:000203C1   163 0001:000203CC   164 0001:000203E0   165 0001:000203EE
   167 0001:00020412   168 0001:0002042C   169 0001:00020440   170 0001:00020446
   171 0001:00020452   165 0001:00020455   173 0001:00020467   176 0001:00020483
   179 0001:0002048C   180 0001:00020495   181 0001:000204AF   182 0001:000204BD
   183 0001:000204CB   184 0001:000204D9   186 0001:000204DE   192 0001:000204E8
   193 0001:000204F1   194 0001:00020500   196 0001:00020506   197 0001:0002050F
   198 0001:0002051A   201 0001:00020525   202 0001:0002052A   203 0001:00020538
   204 0001:00020544   211 0001:00020548   212 0001:00020554   214 0001:00020564
   215 0001:0002056E   216 0001:00020582   217 0001:00020590   219 0001:0002059C
   220 0001:000205BA   221 0001:000205D0   224 0001:000205DA   225 0001:000205E6
   227 0001:000205F3   228 0001:000205FB   229 0001:00020607   230 0001:00020616
   231 0001:00020622   233 0001:00020631   235 0001:0002063E   236 0001:0002064C
   238 0001:00020673   239 0001:0002067E   240 0001:0002068F   239 0001:0002069D
   241 0001:000206A3   242 0001:000206B4   244 0001:000206C5   245 0001:000206DA
   246 0001:000206EF   247 0001:000206FD   248 0001:00020711   249 0001:00020725
   250 0001:00020730   251 0001:0002073B   252 0001:00020752   254 0001:00020769
   256 0001:00020787   257 0001:00020794   260 0001:000207B6   263 0001:000207D2
   272 0001:000207D8   273 0001:000207E8   274 0001:000207F7   276 0001:0002080E
   277 0001:00020819   279 0001:0002083E   281 0001:00020844   282 0001:0002085B
   285 0001:00020885   287 0001:0002089C   288 0001:000208AF   289 0001:000208C4
   290 0001:000208E0   291 0001:000208E6   294 0001:00020904   295 0001:00020910
   300 0001:00020918   301 0001:00020934   303 0001:00020968   306 0001:000209AC
   307 0001:000209B8   308 0001:000209C8   309 0001:000209D3   312 0001:000209D8
   313 0001:000209E7   314 0001:000209ED   316 0001:000209FC   317 0001:00020A0A
   320 0001:00020A50   321 0001:00020A59   322 0001:00020A60   332 0001:00020A68
   333 0001:00020A8B   334 0001:00020A9C   336 0001:00020AA2   338 0001:00020AA7
   339 0001:00020ABF   340 0001:00020AF5   336 0001:00020AF8   342 0001:00020AFE
   348 0001:00020B4C   349 0001:00020B6B   350 0001:00020B76   351 0001:00020B89
   352 0001:00020B8F   353 0001:00020BBB   356 0001:00020C00   357 0001:00020C07
   358 0001:00020C16   359 0001:00020C39   365 0001:00020C40   366 0001:00020C5F
   367 0001:00020C6A   368 0001:00020C7F   369 0001:00020C85   370 0001:00020C95
   371 0001:00020CA0   379 0001:00020CD8   380 0001:00020CE1   381 0001:00020CEE
   382 0001:00020CFD   384 0001:00020D0B   385 0001:00020D15   391 0001:00020D24
   392 0001:00020D31   393 0001:00020D47   394 0001:00020D53   397 0001:00020D6C
   398 0001:00020D73   399 0001:00020D82   400 0001:00020DA5

Line numbers for VA508ImageListLabelerPE(VA508ImageListLabelerPE.pas) segment .itext

   402 0002:000005A8

Line numbers for .VA508AccessXE3(VA508AccessXE3.dpk) segment .itext

    62 0002:000005B0

Bound resource files

D:\CPRS 31\OR_30_377V9_SRC\Packages\508\Source\VA508AccessibilityCompileInfo.dfm
D:\CPRS 31\OR_30_377V9_SRC\Packages\508\Source\VA508ImageListLabelerPE.dfm
VA508AccessXE3.res
Source\VA508AccessibilityManager.dcr
Source\VA508ImageListLabeler.dcr
VA508AccessXE3.drf


Program entry point at 0002:000005B0
